MPASM 5.86              VUMETRE-LUMINEUX.ASM   1-13-2020  14:51:01         PAGE  1


LOC  OBJECT CODE     LINE SOURCE TEXT
  VALUE

                      00001 ;*******************************************************************************
                      00002 ;                                                                              *
                      00003 ;    Microchip licenses this software to you solely for use with Microchip     *
                      00004 ;    products. The software is owned by Microchip and/or its licensors, and is *
                      00005 ;    protected under applicable copyright laws.  All rights reserved.          *
                      00006 ;                                                                              *
                      00007 ;    This software and any accompanying information is for suggestion only.    *
                      00008 ;    It shall not be deemed to modify Microchip?s standard warranty for its    *
                      00009 ;    products.  It is your responsibility to ensure that this software meets   *
                      00010 ;    your requirements.                                                        *
                      00011 ;                                                                              *
                      00012 ;    SOFTWARE IS PROVIDED "AS IS".  MICROCHIP AND ITS LICENSORS EXPRESSLY      *
                      00013 ;    DISCLAIM ANY WARRANTY OF ANY KIND, WHETHER EXPRESS OR IMPLIED, INCLUDING  *
                      00014 ;    BUT NOT LIMITED TO, THE IMPLIED WARRANTIES OF MERCHANTABILITY, FITNESS    *
                      00015 ;    FOR A PARTICULAR PURPOSE, OR NON-INFRINGEMENT. IN NO EVENT SHALL          *
                      00016 ;    MICROCHIP OR ITS LICENSORS BE LIABLE FOR ANY INCIDENTAL, SPECIAL,         *
                      00017 ;    INDIRECT OR CONSEQUENTIAL DAMAGES, LOST PROFITS OR LOST DATA, HARM TO     *
                      00018 ;    YOUR EQUIPMENT, COST OF PROCUREMENT OF SUBSTITUTE GOODS, TECHNOLOGY OR    *
                      00019 ;    SERVICES, ANY CLAIMS BY THIRD PARTIES (INCLUDING BUT NOT LIMITED TO ANY   *
                      00020 ;    DEFENSE THEREOF), ANY CLAIMS FOR INDEMNITY OR CONTRIBUTION, OR OTHER      *
                      00021 ;    SIMILAR COSTS.                                                            *
                      00022 ;                                                                              *
                      00023 ;    To the fullest extend allowed by law, Microchip and its licensors         *
                      00024 ;    liability shall not exceed the amount of fee, if any, that you have paid  *
                      00025 ;    directly to Microchip to use this software.                               *
                      00026 ;                                                                              *
                      00027 ;    MICROCHIP PROVIDES THIS SOFTWARE CONDITIONALLY UPON YOUR ACCEPTANCE OF    *
                      00028 ;    THESE TERMS.                                                              *
                      00029 ;                                                                              *
                      00030 ;*******************************************************************************
                      00031 ;                                                                              *
                      00032 ;    Filename:                                                                 *
                      00033 ;    Date:                                                                     *
                      00034 ;    File Version:                                                             *
                      00035 ;    Author:                                                                   *
                      00036 ;    Company:                                                                  *
                      00037 ;    Description:                                                              *
                      00038 ;                                                                              *
                      00039 ;*******************************************************************************
                      00040 ;                                                                              *
                      00041 ;    Notes: In the MPLAB X Help, refer to the MPASM Assembler documentation    *
                      00042 ;    for information on assembly instructions.                                 *
                      00043 ;                                                                              *
                      00044 ;*******************************************************************************
                      00045 ;                                                                              *
                      00046 ;    Known Issues: This template is designed for relocatable code.  As such,   *
                      00047 ;    build errors such as "Directive only allowed when generating an object    *
                      00048 ;    file" will result when the 'Build in Absolute Mode' checkbox is selected  *
                      00049 ;    in the project properties.  Designing code in absolute mode is            *
                      00050 ;    antiquated - use relocatable mode.                                        *
                      00051 ;                                                                              *
                      00052 ;*******************************************************************************
                      00053 ;                                                                              *
MPASM 5.86              VUMETRE-LUMINEUX.ASM   1-13-2020  14:51:01         PAGE  2


LOC  OBJECT CODE     LINE SOURCE TEXT
  VALUE

                      00054 ;    Revision History:                                                         *
                      00055 ;                                                                              *
                      00056 ;*******************************************************************************
                      00057 
                      00058 
                      00059 
                      00060 ;*******************************************************************************
                      00061 ; Processor Inclusion
                      00062 ;
                      00063 ; TODO Step #1 Open the task list under Window > Tasks.  Include your
                      00064 ; device .inc file - e.g. #include <device_name>.inc.  Available
                      00065 ; include files are in C:\Program Files\Microchip\MPLABX\mpasmx
                      00066 ; assuming the default installation path for MPLAB X.  You may manually find
                      00067 ; the appropriate include file for your device here and include it, or
                      00068 ; simply copy the include generated by the configuration bits
                      00069 ; generator (see Step #2).
                      00070 ;
                      00071 ;*******************************************************************************
                      00072 
                      00073 ; TODO INSERT INCLUDE CODE HERE
                      00074 #include "p18F25K40.inc"
                      00001         LIST
                      00002 
                      00003 ;==========================================================================
                      00004 ; Build date : Oct 24 2019
                      00005 ;  MPASM PIC18F25K40 processor include
                      00006 ; 
                      00007 ;  (c) Copyright 1999-2019 Microchip Technology, All rights reserved
                      00008 ;==========================================================================
                      00009 
                      04494         LIST
                      00075 
                      00076 ;*******************************************************************************
                      00077 ;
                      00078 ; TODO Step #2 - Configuration Word Setup
                      00079 ;
                      00080 ; The 'CONFIG' directive is used to embed the configuration word within the
                      00081 ; .asm file. MPLAB X requires users to embed their configuration words
                      00082 ; into source code.  See the device datasheet for additional information
                      00083 ; on configuration word settings.  Device configuration bits descriptions
                      00084 ; are in C:\Program Files\Microchip\MPLABX\mpasmx\P<device_name>.inc
                      00085 ; (may change depending on your MPLAB X installation directory).
                      00086 ;
                      00087 ; MPLAB X has a feature which generates configuration bits source code.  Go to
                      00088 ; Window > PIC Memory Views > Configuration Bits.  Configure each field as
                      00089 ; needed and select 'Generate Source Code to Output'.  The resulting code which
                      00090 ; appears in the 'Output Window' > 'Config Bits Source' tab may be copied
                      00091 ; below.
                      00092 ;
                      00093 ;*******************************************************************************
                      00094 
                      00095 ; TODO INSERT CONFIG HERE
                      00096 
MPASM 5.86              VUMETRE-LUMINEUX.ASM   1-13-2020  14:51:01         PAGE  3


LOC  OBJECT CODE     LINE SOURCE TEXT
  VALUE

                      00097 ; PIC18F25K40 Configuration Bit Settings
                      00098 
                      00099 ; Assembly source line config statements
                      00100 
                      00101 ; CONFIG1L
                      00102   CONFIG  FEXTOSC = OFF         ; External Oscillator mode Selection bits (Oscillator not enabled)
                      00103   CONFIG  RSTOSC = HFINTOSC_64MHZ; Power-up default value for COSC bits (HFINTOSC with HFFRQ = 4 MHz and
                             CDIV = 4:1)
                      00104 
                      00105 ; CONFIG1H
                      00106   CONFIG  CLKOUTEN = ON         ; Clock Out Enable bit (CLKOUT function is enabled)
                      00107   CONFIG  CSWEN = ON            ; Clock Switch Enable bit (Writing to NOSC and NDIV is allowed)
                      00108   CONFIG  FCMEN = ON            ; Fail-Safe Clock Monitor Enable bit (Fail-Safe Clock Monitor enabled)
                      00109 
                      00110 ; CONFIG2L
                      00111   CONFIG  MCLRE = EXTMCLR       ; Master Clear Enable bit (If LVP = 0, MCLR pin is MCLR; If LVP = 1, RE3
                             pin function is MCLR )
                      00112   CONFIG  PWRTE = OFF           ; Power-up Timer Enable bit (Power up timer disabled)
                      00113   CONFIG  LPBOREN = OFF         ; Low-power BOR enable bit (ULPBOR disabled)
                      00114   CONFIG  BOREN = SBORDIS       ; Brown-out Reset Enable bits (Brown-out Reset enabled , SBOREN bit is i
                            gnored)
                      00115 
                      00116 ; CONFIG2H
                      00117   CONFIG  BORV = VBOR_2P45      ; Brown Out Reset Voltage selection bits (Brown-out Reset Voltage (VBOR)
                             set to 2.45V)
                      00118   CONFIG  ZCD = OFF             ; ZCD Disable bit (ZCD disabled. ZCD can be enabled by setting the ZCDSE
                            N bit of ZCDCON)
                      00119   CONFIG  PPS1WAY = ON          ; PPSLOCK bit One-Way Set Enable bit (PPSLOCK bit can be cleared and set
                             only once; PPS registers remain locked after one clear/set cycle)
                      00120   CONFIG  STVREN = ON           ; Stack Full/Underflow Reset Enable bit (Stack full/underflow will cause
                             Reset)
                      00121   CONFIG  DEBUG = OFF           ; Debugger Enable bit (Background debugger disabled)
                      00122   CONFIG  XINST = OFF           ; Extended Instruction Set Enable bit (Extended Instruction Set and Inde
                            xed Addressing Mode disabled)
                      00123 
                      00124 ; CONFIG3L
                      00125   CONFIG  WDTCPS = WDTCPS_31    ; WDT Period Select bits (Divider ratio 1:65536; software control of WDT
                            PS)
                      00126   CONFIG  WDTE = OFF            ; WDT operating mode (WDT Disabled)
                      00127 
                      00128 ; CONFIG3H
                      00129   CONFIG  WDTCWS = WDTCWS_7     ; WDT Window Select bits (window always open (100%); software control; k
                            eyed access not required)
                      00130   CONFIG  WDTCCS = SC           ; WDT input clock selector (Software Control)
                      00131 
                      00132 ; CONFIG4L
                      00133   CONFIG  WRT0 = OFF            ; Write Protection Block 0 (Block 0 (000800-001FFFh) not write-protected
                            )
                      00134   CONFIG  WRT1 = OFF            ; Write Protection Block 1 (Block 1 (002000-003FFFh) not write-protected
                            )
                      00135   CONFIG  WRT2 = OFF            ; Write Protection Block 2 (Block 2 (004000-005FFFh) not write-protected
                            )
                      00136   CONFIG  WRT3 = OFF            ; Write Protection Block 3 (Block 3 (006000-007FFFh) not write-protected
MPASM 5.86              VUMETRE-LUMINEUX.ASM   1-13-2020  14:51:01         PAGE  4


LOC  OBJECT CODE     LINE SOURCE TEXT
  VALUE

                            )
                      00137 
                      00138 ; CONFIG4H
                      00139   CONFIG  WRTC = OFF            ; Configuration Register Write Protection bit (Configuration registers (
                            300000-30000Bh) not write-protected)
                      00140   CONFIG  WRTB = OFF            ; Boot Block Write Protection bit (Boot Block (000000-0007FFh) not write
                            -protected)
                      00141   CONFIG  WRTD = OFF            ; Data EEPROM Write Protection bit (Data EEPROM not write-protected)
                      00142   CONFIG  SCANE = ON            ; Scanner Enable bit (Scanner module is available for use, SCANMD bit ca
                            n control the module)
                      00143   CONFIG  LVP = OFF             ; Low Voltage Programming Enable bit (HV on MCLR/VPP must be used for pr
                            ogramming)
                      00144 
                      00145 ; CONFIG5L
                      00146   CONFIG  CP = OFF              ; UserNVM Program Memory Code Protection bit (UserNVM code protection di
                            sabled)
                      00147   CONFIG  CPD = OFF             ; DataNVM Memory Code Protection bit (DataNVM code protection disabled)
                      00148 
                      00149 ; CONFIG5H
                      00150 
                      00151 ; CONFIG6L
                      00152   CONFIG  EBTR0 = OFF           ; Table Read Protection Block 0 (Block 0 (000800-001FFFh) not protected 
                            from table reads executed in other blocks)
                      00153   CONFIG  EBTR1 = OFF           ; Table Read Protection Block 1 (Block 1 (002000-003FFFh) not protected 
                            from table reads executed in other blocks)
                      00154   CONFIG  EBTR2 = OFF           ; Table Read Protection Block 2 (Block 2 (004000-005FFFh) not protected 
                            from table reads executed in other blocks)
                      00155   CONFIG  EBTR3 = OFF           ; Table Read Protection Block 3 (Block 3 (006000-007FFFh) not protected 
                            from table reads executed in other blocks)
                      00156 
                      00157 ; CONFIG6H
                      00158   CONFIG  EBTRB = OFF           ; Boot Block Table Read Protection bit (Boot Block (000000-0007FFh) not 
                            protected from table reads executed in other blocks)
                      00159 
                      00160 
                      00161 ;*******************************************************************************
                      00162 ;
                      00163 ; TODO Step #3 - Variable Definitions
                      00164 ;
                      00165 ; Refer to datasheet for available data memory (RAM) organization assuming
                      00166 ; relocatible code organization (which is an option in project
                      00167 ; properties > mpasm (Global Options)).  Absolute mode generally should
                      00168 ; be used sparingly.
                      00169 ;
                      00170 ; Example of using GPR Uninitialized Data
                      00171 ;
                      00172 ;   GPR_VAR        UDATA
                      00173 ;   MYVAR1         RES        1      ; User variable linker places
                      00174 ;   MYVAR2         RES        1      ; User variable linker places
                      00175 ;   MYVAR3         RES        1      ; User variable linker places
                      00176 ;
                      00177 ;   ; Example of using Access Uninitialized Data Section (when available)
                      00178 ;   ; The variables for the context saving in the device datasheet may need
MPASM 5.86              VUMETRE-LUMINEUX.ASM   1-13-2020  14:51:01         PAGE  5


LOC  OBJECT CODE     LINE SOURCE TEXT
  VALUE

                      00179 ;   ; memory reserved here.
                      00180 ;   INT_VAR        UDATA_ACS
                      00181 ;   W_TEMP         RES        1      ; w register for context saving (ACCESS)
                      00182 ;   STATUS_TEMP    RES        1      ; status used for context saving
                      00183 ;   BSR_TEMP       RES        1      ; bank select used for ISR context saving
                      00184 ;
                      00185 ;*******************************************************************************
                      00186 
                      00187 ; TODO PLACE VARIABLE DEFINITIONS GO HERE
                      00188 INT_VAR        UDATA_ACS
000000                00189 temp RES 1
000001                00190 filbleu RES 1
000002                00191 var0 RES 1
000003                00192 var1 RES 1
000004                00193 varW0 RES 1
000005                00194 varW1 RES 1
000006                00195 puissanceB RES 1
000007                00196 puissanceMB RES 1
000008                00197 puissanceMH RES 1
000009                00198 puissanceA RES 1
00000A                00199 RESULTHIGH RES 1
00000B                00200 RESULTLOW RES 1
00000C                00201 result8 RES 1
                      00202   
                      00203 ;*******************************************************************************
                      00204 ; Reset Vector
                      00205 ;*******************************************************************************
                      00206 
                      00207 RES_VECT  CODE    0x0000            ; processor reset vector
000000 EF?? F???      00208     GOTO    STARTPRGM                   ; go to beginning of program
                      00209 
                      00210 ;*******************************************************************************
                      00211 ; TODO Step #4 - Interrupt Service Routines
                      00212 ;
                      00213 ; There are a few different ways to structure interrupt routines in the 8
                      00214 ; bit device families.  On PIC18's the high priority and low priority
                      00215 ; interrupts are located at 0x0008 and 0x0018, respectively.  On PIC16's and
                      00216 ; lower the interrupt is at 0x0004.  Between device families there is subtle
                      00217 ; variation in the both the hardware supporting the ISR (for restoring
                      00218 ; interrupt context) as well as the software used to restore the context
                      00219 ; (without corrupting the STATUS bits).
                      00220 ;
                      00221 ; General formats are shown below in relocatible format.
                      00222 ;
                      00223 ;------------------------------PIC16's and below--------------------------------
                      00224 ;
                      00225 ; ISR       CODE    0x0004           ; interrupt vector location
                      00226 ;
                      00227 ;     <Search the device datasheet for 'context' and copy interrupt
                      00228 ;     context saving code here.  Older devices need context saving code,
                      00229 ;     but newer devices like the 16F#### don't need context saving code.>
                      00230 ;
                      00231 ;     RETFIE
MPASM 5.86              VUMETRE-LUMINEUX.ASM   1-13-2020  14:51:01         PAGE  6


LOC  OBJECT CODE     LINE SOURCE TEXT
  VALUE

                      00232 ;
                      00233 ;----------------------------------PIC18's--------------------------------------
                      00234 ;
                      00235 ; ISRHV     CODE    0x0008
                      00236 ;     GOTO    HIGH_ISR
                      00237 ; ISRLV     CODE    0x0018
                      00238 ;     GOTO    LOW_ISR
                      00239 ;
                      00240 ; ISRH      CODE                     ; let linker place high ISR routine
                      00241 ; HIGH_ISR
                      00242 ;     <Insert High Priority ISR Here - no SW context saving>
                      00243 ;     RETFIE  FAST
                      00244 ;
                      00245 ; ISRL      CODE                     ; let linker place low ISR routine
                      00246 ; LOW_ISR
                      00247 ;       <Search the device datasheet for 'context' and copy interrupt
                      00248 ;       context saving code here>
                      00249 ;     RETFIE
                      00250 ;
                      00251 ;*******************************************************************************
                      00252 
                      00253 ; TODO INSERT ISR HERE
                      00254 
000004                00255 ZERO
000004 8A84           00256     BSF LATB, 5
000006 0000           00257     NOP
000008 0000           00258     NOP
00000A 0000           00259     NOP
00000C 9A84           00260     BCF LATB, 5
Warning[203]: Found opcode in column 1. (RETURN)
00000E 0013           00261 RETURN 1
                      00262     
000010                00263 UN
000010 8A84           00264     BSF LATB, 5
000012 0000           00265     NOP
000014 0000           00266     NOP
000016 0000           00267     NOP
000018 0000           00268     NOP
00001A 0000           00269     NOP
00001C 0000           00270     NOP
00001E 0000           00271     NOP
000020 0000           00272     NOP
000022 0000           00273     NOP
000024 0000           00274     NOP
000026 0000           00275     NOP
000028 9A84           00276     BCF LATB, 5
Warning[203]: Found opcode in column 1. (RETURN)
00002A 0013           00277 RETURN 1
                      00278     
00002C                00279 Ruban_LED
00002C 6E??           00280     MOVWF filbleu
00002E 0E00           00281     MOVLW b'00000000'
000030 6E??           00282     MOVWF temp
MPASM 5.86              VUMETRE-LUMINEUX.ASM   1-13-2020  14:51:01         PAGE  7


LOC  OBJECT CODE     LINE SOURCE TEXT
  VALUE

Warning[207]: Found label after column 1. (parcours)
000032                00283     parcours
000032 B0??           00284         BTFSC filbleu, 0
000034 EF?? F???      00285         GOTO un
000038 A0??           00286         BTFSS filbleu, 0
00003A EC?? F???      00287         CALL ZERO
00003E EF?? F???      00288         GOTO suite
                      00289         
Warning[207]: Found label after column 1. (un)
000042                00290         un
000042 EC?? F???      00291         CALL UN
000046 0000           00292         NOP
                      00293         
Warning[207]: Found label after column 1. (suite)
000048                00294         suite
000048 2A??           00295         INCF temp
00004A 4600           00296         RLNCF filbleu,1,0
00004C 0E08           00297         MOVLW 8
00004E 62??           00298         CPFSEQ temp
000050 EF?? F???      00299     GOTO parcours
Warning[203]: Found opcode in column 1. (RETURN)
000054 0013           00300 RETURN 1
                      00301     
000056                00302 LED_VERTE
000056 0E20           00303     MOVLW b'00100000'
000058 ED00 F000      00304     CALL Ruban_LED, FAST
00005C 0E00           00305     MOVLW b'00000000'
00005E ED00 F000      00306     CALL Ruban_LED, FAST
000062 0E00           00307     MOVLW b'00000000'
000064 ED00 F000      00308     CALL Ruban_LED, FAST
000068 0E00           00309     MOVLW b'00000000'
00006A ED00 F000      00310     CALL Ruban_LED, FAST
Warning[203]: Found opcode in column 1. (RETURN)
00006E 0013           00311 RETURN 1
                      00312     
000070                00313 LED_NOIRE
000070 0E00           00314     MOVLW b'00000000'
000072 ED00 F000      00315     CALL Ruban_LED, FAST
000076 0E00           00316     MOVLW b'00000000'
000078 ED00 F000      00317     CALL Ruban_LED, FAST
00007C 0E00           00318     MOVLW b'00000000'
00007E ED00 F000      00319     CALL Ruban_LED, FAST
000082 0E00           00320     MOVLW b'00000000'
000084 ED00 F000      00321     CALL Ruban_LED, FAST
Warning[203]: Found opcode in column 1. (RETURN)
000088 0013           00322 RETURN 1
                      00323     
00008A                00324 LED_ROUGE
00008A 0E00           00325     MOVLW b'00000000'
00008C ED00 F000      00326     CALL Ruban_LED, FAST
000090 0E60           00327     MOVLW b'01100000'
000092 ED00 F000      00328     CALL Ruban_LED, FAST
000096 0E00           00329     MOVLW b'00000000'
MPASM 5.86              VUMETRE-LUMINEUX.ASM   1-13-2020  14:51:01         PAGE  8


LOC  OBJECT CODE     LINE SOURCE TEXT
  VALUE

000098 ED00 F000      00330     CALL Ruban_LED, FAST
00009C 0E00           00331     MOVLW b'00000000'
00009E ED00 F000      00332     CALL Ruban_LED, FAST
Warning[203]: Found opcode in column 1. (RETURN)
0000A2 0013           00333 RETURN 1
                      00334     
0000A4                00335 LED_BLEUE
0000A4 0E00           00336     MOVLW b'00000000'
0000A6 ED00 F000      00337     CALL Ruban_LED, FAST
0000AA 0E00           00338     MOVLW b'00000000'
0000AC ED00 F000      00339     CALL Ruban_LED, FAST
0000B0 0E20           00340     MOVLW b'00100000'
0000B2 ED00 F000      00341     CALL Ruban_LED, FAST
0000B6 0E00           00342     MOVLW b'00000000'
0000B8 ED00 F000      00343     CALL Ruban_LED, FAST
Warning[203]: Found opcode in column 1. (RETURN)
0000BC 0013           00344 RETURN 1
                      00345     
0000BE                00346 LED_BLANCHE
0000BE 0E04           00347     MOVLW b'00000100'
0000C0 ED00 F000      00348     CALL Ruban_LED, FAST
0000C4 0E04           00349     MOVLW b'00000100'
0000C6 ED00 F000      00350     CALL Ruban_LED, FAST
0000CA 0E04           00351     MOVLW b'00000100'
0000CC ED00 F000      00352     CALL Ruban_LED, FAST
0000D0 0E04           00353     MOVLW b'00000100'
0000D2 ED00 F000      00354     CALL Ruban_LED, FAST
Warning[203]: Found opcode in column 1. (RETURN)
0000D6 0013           00355 RETURN 1
                      00356     
0000D8                00357 LED_JAUNE
0000D8 0E20           00358     MOVLW b'00100000'
0000DA ED00 F000      00359     CALL Ruban_LED, FAST
0000DE 0E20           00360     MOVLW b'00100000'
0000E0 ED00 F000      00361     CALL Ruban_LED, FAST
0000E4 0E00           00362     MOVLW b'00000000'
0000E6 ED00 F000      00363     CALL Ruban_LED, FAST
0000EA 0E00           00364     MOVLW b'00000000'
0000EC ED00 F000      00365     CALL Ruban_LED, FAST
Warning[203]: Found opcode in column 1. (RETURN)
0000F0 0013           00366 RETURN 1
                      00367     
0000F2                00368 LED_ORANGE
0000F2 0E08           00369     MOVLW b'00001000'
0000F4 ED00 F000      00370     CALL Ruban_LED, FAST
0000F8 0E1E           00371     MOVLW b'00011110'
0000FA ED00 F000      00372     CALL Ruban_LED, FAST
0000FE 0E00           00373     MOVLW b'00000000'
000100 ED00 F000      00374     CALL Ruban_LED, FAST
000104 0E00           00375     MOVLW b'00000000'
000106 ED00 F000      00376     CALL Ruban_LED, FAST
Warning[203]: Found opcode in column 1. (RETURN)
00010A 0013           00377 RETURN 1
MPASM 5.86              VUMETRE-LUMINEUX.ASM   1-13-2020  14:51:01         PAGE  9


LOC  OBJECT CODE     LINE SOURCE TEXT
  VALUE

                      00378     
00010C                00379 LED_VIOLETTE
00010C 0E00           00380     MOVLW b'00000000'
00010E ED00 F000      00381     CALL Ruban_LED, FAST
000112 0E20           00382     MOVLW b'00100000'
000114 ED00 F000      00383     CALL Ruban_LED, FAST
000118 0E20           00384     MOVLW b'00100000'
00011A ED00 F000      00385     CALL Ruban_LED, FAST
00011E 0E00           00386     MOVLW b'00000000'
000120 ED00 F000      00387     CALL Ruban_LED, FAST
Warning[203]: Found opcode in column 1. (RETURN)
000124 0013           00388 RETURN 1
                      00389     
000126                00390 LED_CYAN
000126 0E20           00391     MOVLW b'00100000'
000128 ED00 F000      00392     CALL Ruban_LED, FAST
00012C 0E00           00393     MOVLW b'00000000'
00012E ED00 F000      00394     CALL Ruban_LED, FAST
000132 0E20           00395     MOVLW b'00100000'
000134 ED00 F000      00396     CALL Ruban_LED, FAST
000138 0E00           00397     MOVLW b'00000000'
00013A ED00 F000      00398     CALL Ruban_LED, FAST
Warning[203]: Found opcode in column 1. (RETURN)
00013E 0013           00399 RETURN 1
                      00400     
000140                00401 LED_END
                      00402  
000140 0E05           00403     MOVLW d'5'
000142 CFE8 F???      00404     MOVFF WREG,var0
                      00405 
Warning[207]: Found label after column 1. (boucle0)
000146                00406     boucle0
000146 0EFF           00407     MOVLW d'255'
000148 CFE8 F???      00408     MOVFF WREG,var1
                      00409 
Warning[207]: Found label after column 1. (boucle1)
00014C                00410     boucle1
00014C 2E??           00411     DECFSZ var1
00014E EF?? F???      00412     GOTO boucle1
000152 2E??           00413     DECFSZ var0
000154 EF?? F???      00414     GOTO boucle0
000158 0012           00415  RETURN
                      00416  
                      00417  
                      00418     
00015A                00419 LED_WAIT
                      00420  
00015A 0E01           00421     MOVLW d'1'
00015C CFE8 F???      00422     MOVFF WREG,varW0
                      00423 
Warning[207]: Found label after column 1. (boucleW0)
000160                00424     boucleW0
000160 0EFF           00425     MOVLW d'255'
MPASM 5.86              VUMETRE-LUMINEUX.ASM   1-13-2020  14:51:01         PAGE 10


LOC  OBJECT CODE     LINE SOURCE TEXT
  VALUE

000162 CFE8 F???      00426     MOVFF WREG,varW1
                      00427 
Warning[207]: Found label after column 1. (boucleW1)
000166                00428     boucleW1
000166 EC?? F???      00429     CALL LED_END
00016A 2E??           00430     DECFSZ varW1
00016C EF?? F???      00431     GOTO boucleW1
000170 2E??           00432     DECFSZ varW0
000172 EF?? F???      00433     GOTO boucleW0
000176 0012           00434  RETURN
                      00435  
Warning[207]: Found label after column 1. (ZERO_DE_PUISSANCE)
000178                00436  ZERO_DE_PUISSANCE
000178 EC?? F???      00437     CALL LED_NOIRE
00017C EC?? F???      00438     CALL LED_NOIRE
000180 EC?? F???      00439     CALL LED_NOIRE
000184 EC?? F???      00440     CALL LED_NOIRE
000188 EC?? F???      00441     CALL LED_NOIRE
00018C EC?? F???      00442     CALL LED_NOIRE
000190 EC?? F???      00443     CALL LED_NOIRE
000194 EC?? F???      00444     CALL LED_NOIRE
000198 EC?? F???      00445     CALL LED_NOIRE
00019C EC?? F???      00446     CALL LED_NOIRE
0001A0 EC?? F???      00447     CALL LED_NOIRE
0001A4 EC?? F???      00448     CALL LED_NOIRE
0001A8 EC?? F???      00449     CALL LED_NOIRE
0001AC EC?? F???      00450     CALL LED_NOIRE
0001B0 EC?? F???      00451     CALL LED_NOIRE
0001B4 EC?? F???      00452     CALL LED_NOIRE
                      00453  
0001B8 0013           00454  RETURN 1
                      00455  
Warning[207]: Found label after column 1. (UN_DE_PUISSANCE)
0001BA                00456  UN_DE_PUISSANCE
0001BA EC?? F???      00457     CALL LED_VIOLETTE
0001BE EC?? F???      00458     CALL LED_NOIRE
0001C2 EC?? F???      00459     CALL LED_NOIRE
0001C6 EC?? F???      00460     CALL LED_NOIRE
0001CA EC?? F???      00461     CALL LED_NOIRE
0001CE EC?? F???      00462     CALL LED_NOIRE
0001D2 EC?? F???      00463     CALL LED_NOIRE
0001D6 EC?? F???      00464     CALL LED_NOIRE
0001DA EC?? F???      00465     CALL LED_VIOLETTE
0001DE EC?? F???      00466     CALL LED_NOIRE
0001E2 EC?? F???      00467     CALL LED_NOIRE
0001E6 EC?? F???      00468     CALL LED_NOIRE
0001EA EC?? F???      00469     CALL LED_NOIRE
0001EE EC?? F???      00470     CALL LED_NOIRE
0001F2 EC?? F???      00471     CALL LED_NOIRE
0001F6 EC?? F???      00472     CALL LED_NOIRE
                      00473  
0001FA 0013           00474  RETURN 1
                      00475  
MPASM 5.86              VUMETRE-LUMINEUX.ASM   1-13-2020  14:51:01         PAGE 11


LOC  OBJECT CODE     LINE SOURCE TEXT
  VALUE

Warning[207]: Found label after column 1. (DEUX_DE_PUISSANCE)
0001FC                00476  DEUX_DE_PUISSANCE
0001FC EC?? F???      00477     CALL LED_VIOLETTE
000200 EC?? F???      00478     CALL LED_BLEUE
000204 EC?? F???      00479     CALL LED_NOIRE
000208 EC?? F???      00480     CALL LED_NOIRE
00020C EC?? F???      00481     CALL LED_NOIRE
000210 EC?? F???      00482     CALL LED_NOIRE
000214 EC?? F???      00483     CALL LED_NOIRE
000218 EC?? F???      00484     CALL LED_NOIRE
00021C EC?? F???      00485     CALL LED_VIOLETTE
000220 EC?? F???      00486     CALL LED_BLEUE
000224 EC?? F???      00487     CALL LED_NOIRE
000228 EC?? F???      00488     CALL LED_NOIRE
00022C EC?? F???      00489     CALL LED_NOIRE
000230 EC?? F???      00490     CALL LED_NOIRE
000234 EC?? F???      00491     CALL LED_NOIRE
000238 EC?? F???      00492     CALL LED_NOIRE
                      00493  
00023C 0013           00494  RETURN 1
                      00495  
Warning[207]: Found label after column 1. (TROIS_DE_PUISSANCE)
00023E                00496  TROIS_DE_PUISSANCE
00023E EC?? F???      00497     CALL LED_VIOLETTE
000242 EC?? F???      00498     CALL LED_BLEUE
000246 EC?? F???      00499     CALL LED_VERTE
00024A EC?? F???      00500     CALL LED_NOIRE
00024E EC?? F???      00501     CALL LED_NOIRE
000252 EC?? F???      00502     CALL LED_NOIRE
000256 EC?? F???      00503     CALL LED_NOIRE
00025A EC?? F???      00504     CALL LED_NOIRE
00025E EC?? F???      00505     CALL LED_VIOLETTE
000262 EC?? F???      00506     CALL LED_BLEUE
000266 EC?? F???      00507     CALL LED_VERTE
00026A EC?? F???      00508     CALL LED_NOIRE
00026E EC?? F???      00509     CALL LED_NOIRE
000272 EC?? F???      00510     CALL LED_NOIRE
000276 EC?? F???      00511     CALL LED_NOIRE
00027A EC?? F???      00512     CALL LED_NOIRE
                      00513  
00027E 0013           00514  RETURN 1
                      00515  
Warning[207]: Found label after column 1. (QUATRE_DE_PUISSANCE)
000280                00516  QUATRE_DE_PUISSANCE
000280 EC?? F???      00517     CALL LED_VIOLETTE
000284 EC?? F???      00518     CALL LED_BLEUE
000288 EC?? F???      00519     CALL LED_VERTE
00028C EC?? F???      00520     CALL LED_VERTE
000290 EC?? F???      00521     CALL LED_NOIRE
000294 EC?? F???      00522     CALL LED_NOIRE
000298 EC?? F???      00523     CALL LED_NOIRE
00029C EC?? F???      00524     CALL LED_NOIRE
0002A0 EC?? F???      00525     CALL LED_VIOLETTE
MPASM 5.86              VUMETRE-LUMINEUX.ASM   1-13-2020  14:51:01         PAGE 12


LOC  OBJECT CODE     LINE SOURCE TEXT
  VALUE

0002A4 EC?? F???      00526     CALL LED_BLEUE
0002A8 EC?? F???      00527     CALL LED_VERTE
0002AC EC?? F???      00528     CALL LED_VERTE
0002B0 EC?? F???      00529     CALL LED_NOIRE
0002B4 EC?? F???      00530     CALL LED_NOIRE
0002B8 EC?? F???      00531     CALL LED_NOIRE
0002BC EC?? F???      00532     CALL LED_NOIRE
                      00533  
0002C0 0013           00534  RETURN 1
                      00535  
Warning[207]: Found label after column 1. (CINQ_DE_PUISSANCE)
0002C2                00536  CINQ_DE_PUISSANCE
0002C2 EC?? F???      00537     CALL LED_VIOLETTE
0002C6 EC?? F???      00538     CALL LED_BLEUE
0002CA EC?? F???      00539     CALL LED_VERTE
0002CE EC?? F???      00540     CALL LED_VERTE
0002D2 EC?? F???      00541     CALL LED_VERTE
0002D6 EC?? F???      00542     CALL LED_NOIRE
0002DA EC?? F???      00543     CALL LED_NOIRE
0002DE EC?? F???      00544     CALL LED_NOIRE
0002E2 EC?? F???      00545     CALL LED_VIOLETTE
0002E6 EC?? F???      00546     CALL LED_BLEUE
0002EA EC?? F???      00547     CALL LED_VERTE
0002EE EC?? F???      00548     CALL LED_VERTE
0002F2 EC?? F???      00549     CALL LED_VERTE
0002F6 EC?? F???      00550     CALL LED_NOIRE
0002FA EC?? F???      00551     CALL LED_NOIRE
0002FE EC?? F???      00552     CALL LED_NOIRE
                      00553  
000302 0013           00554  RETURN 1
                      00555  
Warning[207]: Found label after column 1. (SIX_DE_PUISSANCE)
000304                00556  SIX_DE_PUISSANCE
000304 EC?? F???      00557     CALL LED_VIOLETTE
000308 EC?? F???      00558     CALL LED_BLEUE
00030C EC?? F???      00559     CALL LED_VERTE
000310 EC?? F???      00560     CALL LED_VERTE
000314 EC?? F???      00561     CALL LED_VERTE
000318 EC?? F???      00562     CALL LED_JAUNE
00031C EC?? F???      00563     CALL LED_NOIRE
000320 EC?? F???      00564     CALL LED_NOIRE
000324 EC?? F???      00565     CALL LED_VIOLETTE
000328 EC?? F???      00566     CALL LED_BLEUE
00032C EC?? F???      00567     CALL LED_VERTE
000330 EC?? F???      00568     CALL LED_VERTE
000334 EC?? F???      00569     CALL LED_VERTE
000338 EC?? F???      00570     CALL LED_JAUNE
00033C EC?? F???      00571     CALL LED_NOIRE
000340 EC?? F???      00572     CALL LED_NOIRE
                      00573  
000344 0013           00574  RETURN 1
                      00575  
Warning[207]: Found label after column 1. (SEPT_DE_PUISSANCE)
MPASM 5.86              VUMETRE-LUMINEUX.ASM   1-13-2020  14:51:01         PAGE 13


LOC  OBJECT CODE     LINE SOURCE TEXT
  VALUE

000346                00576  SEPT_DE_PUISSANCE
000346 EC?? F???      00577     CALL LED_VIOLETTE
00034A EC?? F???      00578     CALL LED_BLEUE
00034E EC?? F???      00579     CALL LED_VERTE
000352 EC?? F???      00580     CALL LED_VERTE
000356 EC?? F???      00581     CALL LED_VERTE
00035A EC?? F???      00582     CALL LED_JAUNE
00035E EC?? F???      00583     CALL LED_ORANGE
000362 EC?? F???      00584     CALL LED_NOIRE
000366 EC?? F???      00585     CALL LED_VIOLETTE
00036A EC?? F???      00586     CALL LED_BLEUE
00036E EC?? F???      00587     CALL LED_VERTE
000372 EC?? F???      00588     CALL LED_VERTE
000376 EC?? F???      00589     CALL LED_VERTE
00037A EC?? F???      00590     CALL LED_JAUNE
00037E EC?? F???      00591     CALL LED_ORANGE
000382 EC?? F???      00592     CALL LED_NOIRE
000386 0013           00593  RETURN 1
                      00594  
Warning[207]: Found label after column 1. (HUIT_DE_PUISSANCE)
000388                00595  HUIT_DE_PUISSANCE
000388 EC?? F???      00596     CALL LED_VIOLETTE
00038C EC?? F???      00597     CALL LED_BLEUE
000390 EC?? F???      00598     CALL LED_VERTE
000394 EC?? F???      00599     CALL LED_VERTE
000398 EC?? F???      00600     CALL LED_VERTE
00039C EC?? F???      00601     CALL LED_JAUNE
0003A0 EC?? F???      00602     CALL LED_ORANGE
0003A4 EC?? F???      00603     CALL LED_ROUGE
0003A8 EC?? F???      00604     CALL LED_VIOLETTE
0003AC EC?? F???      00605     CALL LED_BLEUE
0003B0 EC?? F???      00606     CALL LED_VERTE
0003B4 EC?? F???      00607     CALL LED_VERTE
0003B8 EC?? F???      00608     CALL LED_VERTE
0003BC EC?? F???      00609     CALL LED_JAUNE
0003C0 EC?? F???      00610     CALL LED_ORANGE
0003C4 EC?? F???      00611     CALL LED_ROUGE
0003C8 0013           00612  RETURN 1
                      00613  
                      00614 
Warning[207]: Found label after column 1. (BASSES)
0003CA                00615  BASSES
0003CA 0E00           00616     MOVLW 0
0003CC 62??           00617     CPFSEQ puissanceB
0003CE EF?? F???      00618     GOTO suiteB
0003D2 EC?? F???      00619     CALL ZERO_DE_PUISSANCE
                      00620     
Warning[207]: Found label after column 1. (suiteB)
0003D6                00621     suiteB
0003D6 0E01           00622     MOVLW 1
0003D8 62??           00623     CPFSEQ puissanceB
0003DA EF?? F???      00624     GOTO suiteB1
0003DE EC?? F???      00625     CALL UN_DE_PUISSANCE
MPASM 5.86              VUMETRE-LUMINEUX.ASM   1-13-2020  14:51:01         PAGE 14


LOC  OBJECT CODE     LINE SOURCE TEXT
  VALUE

                      00626     
Warning[207]: Found label after column 1. (suiteB1)
0003E2                00627     suiteB1
0003E2 0E02           00628     MOVLW 2
0003E4 62??           00629     CPFSEQ puissanceB
0003E6 EF?? F???      00630     GOTO suiteB2
0003EA EC?? F???      00631     CALL DEUX_DE_PUISSANCE
                      00632     
Warning[207]: Found label after column 1. (suiteB2)
0003EE                00633     suiteB2
0003EE 0E03           00634     MOVLW 3
0003F0 62??           00635     CPFSEQ puissanceB
0003F2 EF?? F???      00636     GOTO suiteB3
0003F6 EC?? F???      00637     CALL TROIS_DE_PUISSANCE
                      00638     
Warning[207]: Found label after column 1. (suiteB3)
0003FA                00639     suiteB3
0003FA 0E04           00640     MOVLW 4
0003FC 62??           00641     CPFSEQ puissanceB
0003FE EF?? F???      00642     GOTO suiteB4
000402 EC?? F???      00643     CALL QUATRE_DE_PUISSANCE
                      00644     
Warning[207]: Found label after column 1. (suiteB4)
000406                00645     suiteB4
000406 0E05           00646     MOVLW 5
000408 62??           00647     CPFSEQ puissanceB
00040A EF?? F???      00648     GOTO suiteB5
00040E EC?? F???      00649     CALL CINQ_DE_PUISSANCE
                      00650     
Warning[207]: Found label after column 1. (suiteB5)
000412                00651     suiteB5
000412 0E06           00652     MOVLW 6
000414 62??           00653     CPFSEQ puissanceB
000416 EF?? F???      00654     GOTO suiteB6
00041A EC?? F???      00655     CALL SIX_DE_PUISSANCE
                      00656     
Warning[207]: Found label after column 1. (suiteB6)
00041E                00657     suiteB6
00041E 0E07           00658     MOVLW 7
000420 62??           00659     CPFSEQ puissanceB
000422 EF?? F???      00660     GOTO suiteB7
000426 EC?? F???      00661     CALL SEPT_DE_PUISSANCE
                      00662     
Warning[207]: Found label after column 1. (suiteB7)
00042A                00663     suiteB7
00042A 0E08           00664     MOVLW 8
00042C 62??           00665     CPFSEQ puissanceB
00042E EF?? F???      00666     GOTO suiteB8
000432 EC?? F???      00667     CALL HUIT_DE_PUISSANCE
                      00668     
Warning[207]: Found label after column 1. (suiteB8)
000436                00669     suiteB8
000436 0013           00670  RETURN 1
MPASM 5.86              VUMETRE-LUMINEUX.ASM   1-13-2020  14:51:01         PAGE 15


LOC  OBJECT CODE     LINE SOURCE TEXT
  VALUE

                      00671  
                      00672 
Warning[207]: Found label after column 1. (MEDIUM_BAS)
000438                00673  MEDIUM_BAS
000438 0E00           00674     MOVLW 0
00043A 62??           00675     CPFSEQ puissanceMB
00043C EF?? F???      00676     GOTO suiteMB
000440 EC?? F???      00677     CALL ZERO_DE_PUISSANCE
                      00678     
Warning[207]: Found label after column 1. (suiteMB)
000444                00679     suiteMB
000444 0E01           00680     MOVLW 1
000446 62??           00681     CPFSEQ puissanceMB
000448 EF?? F???      00682     GOTO suiteMB1
00044C EC?? F???      00683     CALL UN_DE_PUISSANCE
                      00684     
Warning[207]: Found label after column 1. (suiteMB1)
000450                00685     suiteMB1
000450 0E02           00686     MOVLW 2
000452 62??           00687     CPFSEQ puissanceMB
000454 EF?? F???      00688     GOTO suiteMB2
000458 EC?? F???      00689     CALL DEUX_DE_PUISSANCE
                      00690     
Warning[207]: Found label after column 1. (suiteMB2)
00045C                00691     suiteMB2
00045C 0E03           00692     MOVLW 3
00045E 62??           00693     CPFSEQ puissanceMB
000460 EF?? F???      00694     GOTO suiteMB3
000464 EC?? F???      00695     CALL TROIS_DE_PUISSANCE
                      00696     
Warning[207]: Found label after column 1. (suiteMB3)
000468                00697     suiteMB3
000468 0E04           00698     MOVLW 4
00046A 62??           00699     CPFSEQ puissanceMB
00046C EF?? F???      00700     GOTO suiteMB4
000470 EC?? F???      00701     CALL QUATRE_DE_PUISSANCE
                      00702     
Warning[207]: Found label after column 1. (suiteMB4)
000474                00703     suiteMB4
000474 0E05           00704     MOVLW 5
000476 62??           00705     CPFSEQ puissanceMB
000478 EF?? F???      00706     GOTO suiteMB5
00047C EC?? F???      00707     CALL CINQ_DE_PUISSANCE
                      00708     
Warning[207]: Found label after column 1. (suiteMB5)
000480                00709     suiteMB5
000480 0E06           00710     MOVLW 6
000482 62??           00711     CPFSEQ puissanceMB
000484 EF?? F???      00712     GOTO suiteMB6
000488 EC?? F???      00713     CALL SIX_DE_PUISSANCE
                      00714     
Warning[207]: Found label after column 1. (suiteMB6)
00048C                00715     suiteMB6
MPASM 5.86              VUMETRE-LUMINEUX.ASM   1-13-2020  14:51:01         PAGE 16


LOC  OBJECT CODE     LINE SOURCE TEXT
  VALUE

00048C 0E07           00716     MOVLW 7
00048E 62??           00717     CPFSEQ puissanceMB
000490 EF?? F???      00718     GOTO suiteMB7
000494 EC?? F???      00719     CALL SEPT_DE_PUISSANCE
                      00720     
Warning[207]: Found label after column 1. (suiteMB7)
000498                00721     suiteMB7
000498 0E08           00722     MOVLW 8
00049A 62??           00723     CPFSEQ puissanceMB
00049C EF?? F???      00724     GOTO suiteMB8
0004A0 EC?? F???      00725     CALL HUIT_DE_PUISSANCE
                      00726     
Warning[207]: Found label after column 1. (suiteMB8)
0004A4                00727     suiteMB8
                      00728  
0004A4 0013           00729  RETURN 1
                      00730  
                      00731 
Warning[207]: Found label after column 1. (MEDIUM_HAUT)
0004A6                00732  MEDIUM_HAUT
0004A6 0E00           00733     MOVLW 0
0004A8 62??           00734     CPFSEQ puissanceMH
0004AA EF?? F???      00735     GOTO suiteMH
0004AE EC?? F???      00736     CALL ZERO_DE_PUISSANCE
                      00737     
Warning[207]: Found label after column 1. (suiteMH)
0004B2                00738     suiteMH
0004B2 0E01           00739     MOVLW 1
0004B4 62??           00740     CPFSEQ puissanceMH
0004B6 EF?? F???      00741     GOTO suiteMH1
0004BA EC?? F???      00742     CALL UN_DE_PUISSANCE
                      00743     
Warning[207]: Found label after column 1. (suiteMH1)
0004BE                00744     suiteMH1
0004BE 0E02           00745     MOVLW 2
0004C0 62??           00746     CPFSEQ puissanceMH
0004C2 EF?? F???      00747     GOTO suiteMH2
0004C6 EC?? F???      00748     CALL DEUX_DE_PUISSANCE
                      00749     
Warning[207]: Found label after column 1. (suiteMH2)
0004CA                00750     suiteMH2
0004CA 0E03           00751     MOVLW 3
0004CC 62??           00752     CPFSEQ puissanceMH
0004CE EF?? F???      00753     GOTO suiteMH3
0004D2 EC?? F???      00754     CALL TROIS_DE_PUISSANCE
                      00755     
Warning[207]: Found label after column 1. (suiteMH3)
0004D6                00756     suiteMH3
0004D6 0E04           00757     MOVLW 4
0004D8 62??           00758     CPFSEQ puissanceMH
0004DA EF?? F???      00759     GOTO suiteMH4
0004DE EC?? F???      00760     CALL QUATRE_DE_PUISSANCE
                      00761     
MPASM 5.86              VUMETRE-LUMINEUX.ASM   1-13-2020  14:51:01         PAGE 17


LOC  OBJECT CODE     LINE SOURCE TEXT
  VALUE

Warning[207]: Found label after column 1. (suiteMH4)
0004E2                00762     suiteMH4
0004E2 0E05           00763     MOVLW 5
0004E4 62??           00764     CPFSEQ puissanceMH
0004E6 EF?? F???      00765     GOTO suiteMH5
0004EA EC?? F???      00766     CALL CINQ_DE_PUISSANCE
                      00767     
Warning[207]: Found label after column 1. (suiteMH5)
0004EE                00768     suiteMH5
0004EE 0E06           00769     MOVLW 6
0004F0 62??           00770     CPFSEQ puissanceMH
0004F2 EF?? F???      00771     GOTO suiteMH6
0004F6 EC?? F???      00772     CALL SIX_DE_PUISSANCE
                      00773     
Warning[207]: Found label after column 1. (suiteMH6)
0004FA                00774     suiteMH6
0004FA 0E07           00775     MOVLW 7
0004FC 62??           00776     CPFSEQ puissanceMH
0004FE EF?? F???      00777     GOTO suiteMH7
000502 EC?? F???      00778     CALL SEPT_DE_PUISSANCE
                      00779     
Warning[207]: Found label after column 1. (suiteMH7)
000506                00780     suiteMH7
000506 0E08           00781     MOVLW 8
000508 62??           00782     CPFSEQ puissanceMH
00050A EF?? F???      00783     GOTO suiteMH8
00050E EC?? F???      00784     CALL HUIT_DE_PUISSANCE
                      00785     
Warning[207]: Found label after column 1. (suiteMH8)
000512                00786     suiteMH8
                      00787  
000512 0013           00788  RETURN 1
                      00789  
                      00790 
Warning[207]: Found label after column 1. (AIGUS)
000514                00791  AIGUS
000514 0E00           00792     MOVLW 0
000516 62??           00793     CPFSEQ puissanceA
000518 EF?? F???      00794     GOTO suiteA
00051C EC?? F???      00795     CALL ZERO_DE_PUISSANCE
                      00796     
Warning[207]: Found label after column 1. (suiteA)
000520                00797     suiteA
000520 0E01           00798     MOVLW 1
000522 62??           00799     CPFSEQ puissanceA
000524 EF?? F???      00800     GOTO suiteA1
000528 EC?? F???      00801     CALL UN_DE_PUISSANCE
                      00802     
Warning[207]: Found label after column 1. (suiteA1)
00052C                00803     suiteA1
00052C 0E02           00804     MOVLW 2
00052E 62??           00805     CPFSEQ puissanceA
000530 EF?? F???      00806     GOTO suiteA2
MPASM 5.86              VUMETRE-LUMINEUX.ASM   1-13-2020  14:51:01         PAGE 18


LOC  OBJECT CODE     LINE SOURCE TEXT
  VALUE

000534 EC?? F???      00807     CALL DEUX_DE_PUISSANCE
                      00808     
Warning[207]: Found label after column 1. (suiteA2)
000538                00809     suiteA2
000538 0E03           00810     MOVLW 3
00053A 62??           00811     CPFSEQ puissanceA
00053C EF?? F???      00812     GOTO suiteA3
000540 EC?? F???      00813     CALL TROIS_DE_PUISSANCE
                      00814     
Warning[207]: Found label after column 1. (suiteA3)
000544                00815     suiteA3
000544 0E04           00816     MOVLW 4
000546 62??           00817     CPFSEQ puissanceA
000548 EF?? F???      00818     GOTO suiteA4
00054C EC?? F???      00819     CALL QUATRE_DE_PUISSANCE
                      00820     
Warning[207]: Found label after column 1. (suiteA4)
000550                00821     suiteA4
000550 0E05           00822     MOVLW 5
000552 62??           00823     CPFSEQ puissanceA
000554 EF?? F???      00824     GOTO suiteA5
000558 EC?? F???      00825     CALL CINQ_DE_PUISSANCE
                      00826     
Warning[207]: Found label after column 1. (suiteA5)
00055C                00827     suiteA5
00055C 0E06           00828     MOVLW 6
00055E 62??           00829     CPFSEQ puissanceA
000560 EF?? F???      00830     GOTO suiteA6
000564 EC?? F???      00831     CALL SIX_DE_PUISSANCE
                      00832     
Warning[207]: Found label after column 1. (suiteA6)
000568                00833     suiteA6
000568 0E07           00834     MOVLW 7
00056A 62??           00835     CPFSEQ puissanceA
00056C EF?? F???      00836     GOTO suiteA7
000570 EC?? F???      00837     CALL SEPT_DE_PUISSANCE
                      00838     
Warning[207]: Found label after column 1. (suiteA7)
000574                00839     suiteA7
000574 0E08           00840     MOVLW 8
000576 62??           00841     CPFSEQ puissanceA
000578 EF?? F???      00842     GOTO suiteA8
00057C EC?? F???      00843     CALL HUIT_DE_PUISSANCE
                      00844     
Warning[207]: Found label after column 1. (suiteA8)
000580                00845     suiteA8
                      00846  
000580 0013           00847  RETURN 1
                      00848  
                      00849 
                      00850  
Warning[207]: Found label after column 1. (TEST_VOLUME)
000582                00851  TEST_VOLUME
MPASM 5.86              VUMETRE-LUMINEUX.ASM   1-13-2020  14:51:01         PAGE 19


LOC  OBJECT CODE     LINE SOURCE TEXT
  VALUE

000582 0E06           00852     MOVLW 6
000584 6E??           00853     MOVWF puissanceB
000586 ED00 F000      00854    CALL BASSES,FAST
00058A 0E03           00855    MOVLW 3
00058C 6E??           00856     MOVWF puissanceMB
00058E ED00 F000      00857    CALL MEDIUM_BAS, FAST
000592 0E08           00858    MOVLW 8 
000594 6E??           00859     MOVWF puissanceMH
000596 ED00 F000      00860    CALL MEDIUM_HAUT, FAST
00059A 0E01           00861    MOVLW 1
00059C 6E??           00862     MOVWF puissanceA
00059E ED00 F000      00863    CALL AIGUS, FAST
                      00864    
0005A2 EC?? F???      00865    CALL LED_WAIT
                      00866    
                      00867    
0005A6 0E07           00868    MOVLW 7
0005A8 6E??           00869     MOVWF puissanceB
0005AA ED00 F000      00870    CALL BASSES,FAST
0005AE 0E04           00871    MOVLW 4
0005B0 6E??           00872     MOVWF puissanceMB
0005B2 ED00 F000      00873    CALL MEDIUM_BAS, FAST
0005B6 0E07           00874    MOVLW 7 
0005B8 6E??           00875     MOVWF puissanceMH
0005BA ED00 F000      00876    CALL MEDIUM_HAUT, FAST
0005BE 0E02           00877    MOVLW 2
0005C0 6E??           00878     MOVWF puissanceA
0005C2 ED00 F000      00879    CALL AIGUS, FAST
                      00880    
0005C6 EC?? F???      00881    CALL LED_WAIT
                      00882    
                      00883    
0005CA 0E08           00884    MOVLW 8
0005CC 6E??           00885     MOVWF puissanceB
0005CE ED00 F000      00886    CALL BASSES,FAST
0005D2 0E05           00887    MOVLW 5
0005D4 6E??           00888     MOVWF puissanceMB
0005D6 ED00 F000      00889    CALL MEDIUM_BAS, FAST
0005DA 0E06           00890    MOVLW 6 
0005DC 6E??           00891     MOVWF puissanceMH
0005DE ED00 F000      00892    CALL MEDIUM_HAUT, FAST
0005E2 0E01           00893    MOVLW 1
0005E4 6E??           00894     MOVWF puissanceA
0005E6 ED00 F000      00895    CALL AIGUS, FAST
                      00896    
0005EA EC?? F???      00897    CALL LED_WAIT
                      00898    
                      00899    
0005EE 0E06           00900    MOVLW 6
0005F0 6E??           00901     MOVWF puissanceB
0005F2 ED00 F000      00902    CALL BASSES,FAST
0005F6 0E06           00903    MOVLW 6
0005F8 6E??           00904     MOVWF puissanceMB
MPASM 5.86              VUMETRE-LUMINEUX.ASM   1-13-2020  14:51:01         PAGE 20


LOC  OBJECT CODE     LINE SOURCE TEXT
  VALUE

0005FA ED00 F000      00905    CALL MEDIUM_BAS, FAST
0005FE 0E04           00906    MOVLW 4 
000600 6E??           00907     MOVWF puissanceMH
000602 ED00 F000      00908    CALL MEDIUM_HAUT, FAST
000606 0E03           00909    MOVLW 3
000608 6E??           00910     MOVWF puissanceA
00060A ED00 F000      00911    CALL AIGUS, FAST
                      00912    
00060E EC?? F???      00913    CALL LED_WAIT
                      00914    
                      00915    
000612 0E04           00916    MOVLW 4
000614 6E??           00917     MOVWF puissanceB
000616 ED00 F000      00918    CALL BASSES,FAST
00061A 0E07           00919    MOVLW 7
00061C 6E??           00920     MOVWF puissanceMB
00061E ED00 F000      00921    CALL MEDIUM_BAS, FAST
000622 0E02           00922    MOVLW 2 
000624 6E??           00923     MOVWF puissanceMH
000626 ED00 F000      00924    CALL MEDIUM_HAUT, FAST
00062A 0E05           00925    MOVLW 5
00062C 6E??           00926     MOVWF puissanceA
00062E ED00 F000      00927    CALL AIGUS, FAST
                      00928    
000632 EC?? F???      00929    CALL LED_WAIT
                      00930    
                      00931    
000636 0E03           00932    MOVLW 3
000638 6E??           00933     MOVWF puissanceB
00063A ED00 F000      00934    CALL BASSES,FAST
00063E 0E07           00935    MOVLW 7
000640 6E??           00936     MOVWF puissanceMB
000642 ED00 F000      00937    CALL MEDIUM_BAS, FAST
000646 0E01           00938    MOVLW 1 
000648 6E??           00939     MOVWF puissanceMH
00064A ED00 F000      00940    CALL MEDIUM_HAUT, FAST
00064E 0E04           00941    MOVLW 4
000650 6E??           00942     MOVWF puissanceA
000652 ED00 F000      00943    CALL AIGUS, FAST
                      00944    
000656 EC?? F???      00945    CALL LED_WAIT
                      00946    
                      00947    
00065A 0E04           00948    MOVLW 4
00065C 6E??           00949     MOVWF puissanceB
00065E ED00 F000      00950    CALL BASSES,FAST
000662 0E07           00951    MOVLW 7
000664 6E??           00952     MOVWF puissanceMB
000666 ED00 F000      00953    CALL MEDIUM_BAS, FAST
00066A 0E03           00954    MOVLW 3 
00066C 6E??           00955     MOVWF puissanceMH
00066E ED00 F000      00956    CALL MEDIUM_HAUT, FAST
000672 0E02           00957    MOVLW 2
MPASM 5.86              VUMETRE-LUMINEUX.ASM   1-13-2020  14:51:01         PAGE 21


LOC  OBJECT CODE     LINE SOURCE TEXT
  VALUE

000674 6E??           00958     MOVWF puissanceA
000676 ED00 F000      00959    CALL AIGUS, FAST
                      00960    
00067A EC?? F???      00961    CALL LED_WAIT
                      00962    
                      00963    
00067E 0E05           00964    MOVLW 5
000680 6E??           00965     MOVWF puissanceB
000682 ED00 F000      00966    CALL BASSES,FAST
000686 0E04           00967    MOVLW 4
000688 6E??           00968     MOVWF puissanceMB
00068A ED00 F000      00969    CALL MEDIUM_BAS, FAST
00068E 0E06           00970    MOVLW 6 
000690 6E??           00971     MOVWF puissanceMH
000692 ED00 F000      00972    CALL MEDIUM_HAUT, FAST
000696 0E00           00973    MOVLW 0
000698 6E??           00974     MOVWF puissanceA
00069A ED00 F000      00975    CALL AIGUS, FAST
                      00976    
00069E EC?? F???      00977    CALL LED_WAIT
                      00978    
                      00979    
0006A2 0E06           00980    MOVLW 6
0006A4 6E??           00981     MOVWF puissanceB
0006A6 ED00 F000      00982    CALL BASSES,FAST
0006AA 0E03           00983    MOVLW 3
0006AC 6E??           00984     MOVWF puissanceMB
0006AE ED00 F000      00985    CALL MEDIUM_BAS, FAST
0006B2 0E08           00986    MOVLW 8 
0006B4 6E??           00987     MOVWF puissanceMH
0006B6 ED00 F000      00988    CALL MEDIUM_HAUT, FAST
0006BA 0E01           00989    MOVLW 1
0006BC 6E??           00990     MOVWF puissanceA
0006BE ED00 F000      00991    CALL AIGUS, FAST
                      00992    
0006C2 EC?? F???      00993    CALL LED_WAIT
0006C6 EC?? F???      00994    CALL LED_WAIT
0006CA EC?? F???      00995    CALL LED_WAIT
0006CE EC?? F???      00996    CALL LED_WAIT
0006D2 EC?? F???      00997    CALL LED_WAIT
0006D6 EC?? F???      00998    CALL LED_WAIT
                      00999    
                      01000    ;CALL SMILEY
0006DA 0013           01001  RETURN 1
                      01002  
                      01003  
                      01004  
Warning[207]: Found label after column 1. (ADC_BASSES)
0006DC                01005  ADC_BASSES
0006DC 010F           01006     BANKSEL ADPCH
0006DE 0E00           01007     MOVLW b'00000000'
0006E0 6F5F           01008     MOVWF ADPCH,1
0006E2 010F           01009     BANKSEL ANSELA
MPASM 5.86              VUMETRE-LUMINEUX.ASM   1-13-2020  14:51:01         PAGE 22


LOC  OBJECT CODE     LINE SOURCE TEXT
  VALUE

0006E4 8111           01010     BSF ANSELA,0
0006E6 8060           01011     BSF ADCON0,ADGO 
Warning[207]: Found label after column 1. (labelB)
0006E8                01012     labelB
0006E8 B060           01013     BTFSC ADCON0,ADGO 
0006EA EF?? F???      01014     GOTO labelB 
0006EE 010F           01015     BANKSEL ADRESH 
0006F0 5064           01016     MOVF ADRESH,W 
0006F2 6E??           01017     MOVWF RESULTHIGH ;changer RESULTHI en RESULTBHI, RESULTMBHI etc...
0006F4 010F           01018     BANKSEL ADRESL 
0006F6 5063           01019     MOVF ADRESL,W 
0006F8 6E??           01020     MOVWF RESULTLOW ;pareil
0006FA 0013           01021  RETURN 1
                      01022  
Warning[207]: Found label after column 1. (ADC_MEDIUM_BAS)
0006FC                01023  ADC_MEDIUM_BAS
0006FC 010F           01024     BANKSEL ADPCH
0006FE 0E01           01025     MOVLW b'00000001'
000700 6F5F           01026     MOVWF ADPCH,1
000702 010F           01027     BANKSEL ANSELA 
000704 8311           01028     BSF ANSELA,1
000706 8060           01029     BSF ADCON0,ADGO 
Warning[207]: Found label after column 1. (labelMB)
000708                01030     labelMB
000708 B060           01031     BTFSC ADCON0,ADGO 
00070A EF?? F???      01032     GOTO labelMB 
00070E 010F           01033     BANKSEL ADRESH 
000710 5064           01034     MOVF ADRESH,W 
000712 6E??           01035     MOVWF RESULTHIGH ;changer RESULTHI en RESULTBHI, RESULTMBHI etc...
000714 010F           01036     BANKSEL ADRESL 
000716 5063           01037     MOVF ADRESL,W 
000718 6E??           01038     MOVWF RESULTLOW ;pareil
00071A 0013           01039  RETURN 1
                      01040 
                      01041  
Warning[207]: Found label after column 1. (ADC_MEDIUM_HAUT)
00071C                01042  ADC_MEDIUM_HAUT
00071C 010F           01043     BANKSEL ADPCH
00071E 0E02           01044     MOVLW b'00000010'
000720 6F5F           01045     MOVWF ADPCH,1
000722 010F           01046     BANKSEL ANSELA 
000724 8511           01047     BSF ANSELA,2 
000726 8060           01048     BSF ADCON0,ADGO 
Warning[207]: Found label after column 1. (labelMH)
000728                01049     labelMH
000728 B060           01050     BTFSC ADCON0,ADGO 
00072A EF?? F???      01051     GOTO labelMH 
00072E 010F           01052     BANKSEL ADRESH 
000730 5064           01053     MOVF ADRESH,W 
000732 6E??           01054     MOVWF RESULTHIGH ;changer RESULTHI en RESULTBHI, RESULTMBHI etc...
000734 010F           01055     BANKSEL ADRESL 
000736 5063           01056     MOVF ADRESL,W 
000738 6E??           01057     MOVWF RESULTLOW ;pareil
MPASM 5.86              VUMETRE-LUMINEUX.ASM   1-13-2020  14:51:01         PAGE 23


LOC  OBJECT CODE     LINE SOURCE TEXT
  VALUE

00073A 0013           01058  RETURN 1
                      01059  
Warning[207]: Found label after column 1. (ADC_AIGUS)
00073C                01060  ADC_AIGUS
00073C 010F           01061     BANKSEL ADPCH
00073E 0E03           01062     MOVLW b'00000011'
000740 6F5F           01063     MOVWF ADPCH,1
000742 010F           01064     BANKSEL ANSELA
000744 8711           01065     BSF ANSELA,3
000746 8060           01066     BSF ADCON0,ADGO 
Warning[207]: Found label after column 1. (labelA)
000748                01067     labelA
000748 B060           01068     BTFSC ADCON0,ADGO 
00074A EF?? F???      01069     GOTO labelA 
00074E 010F           01070     BANKSEL ADRESH 
000750 5064           01071     MOVF ADRESH,W 
000752 6E??           01072     MOVWF RESULTHIGH ;changer RESULTHI en RESULTBHI, RESULTMBHI etc...
000754 010F           01073     BANKSEL ADRESL 
000756 5063           01074     MOVF ADRESL,W 
000758 6E??           01075     MOVWF RESULTLOW ;pareil
00075A 0013           01076  RETURN 1
                      01077  
Warning[207]: Found label after column 1. (FROM1024TO8)
00075C                01078  FROM1024TO8
00075C 0E00           01079     MOVLW b'00000000'
00075E 64??           01080     CPFSGT RESULTHIGH
000760 EF?? F???      01081     GOTO OO
000764 0E01           01082     MOVLW b'00000001'
000766 64??           01083     CPFSGT RESULTHIGH
000768 EF?? F???      01084     GOTO Ol
00076C 0E02           01085     MOVLW b'00000010'
00076E 64??           01086     CPFSGT RESULTHIGH
000770 EF?? F???      01087     GOTO lO
000774 0E03           01088     MOVLW b'00000011'
000776 64??           01089     CPFSGT RESULTHIGH
000778 EF?? F???      01090     GOTO ll
                      01091     
Warning[207]: Found label after column 1. (OO)
00077C                01092     OO
00077C AE??           01093     BTFSS RESULTLOW, 7
00077E EF?? F???      01094     GOTO ZERO_OU_UN
000782 BE??           01095     BTFSC RESULTLOW, 7
000784 0C02           01096     RETLW 2
000786 EF?? F???      01097     GOTO fin8
                      01098     
Warning[207]: Found label after column 1. (Ol)
00078A                01099     Ol
00078A AE??           01100     BTFSS RESULTLOW, 7
00078C 0C03           01101     RETLW 3
00078E BE??           01102     BTFSC RESULTLOW, 7
000790 0C04           01103     RETLW 4
000792 EF?? F???      01104     GOTO fin8
                      01105     
MPASM 5.86              VUMETRE-LUMINEUX.ASM   1-13-2020  14:51:01         PAGE 24


LOC  OBJECT CODE     LINE SOURCE TEXT
  VALUE

Warning[207]: Found label after column 1. (lO)
000796                01106     lO
000796 AE??           01107     BTFSS RESULTLOW, 7
000798 0C05           01108     RETLW 5
00079A BE??           01109     BTFSC RESULTLOW, 7
00079C 0C06           01110     RETLW 6
00079E EF?? F???      01111     GOTO fin8
                      01112     
Warning[207]: Found label after column 1. (ll)
0007A2                01113     ll
0007A2 AE??           01114     BTFSS RESULTLOW, 7
0007A4 0C07           01115     RETLW 7
0007A6 BE??           01116     BTFSC RESULTLOW, 7
0007A8 0C08           01117     RETLW 8
0007AA EF?? F???      01118     GOTO fin8
                      01119     
Warning[207]: Found label after column 1. (ZERO_OU_UN)
0007AE                01120     ZERO_OU_UN
0007AE AC??           01121     BTFSS RESULTLOW, 6
0007B0 BA??           01122     BTFSC RESULTLOW, 5
0007B2 EF?? F???      01123     GOTO its1
0007B6 0C00           01124     RETLW 0
0007B8 EF?? F???      01125     GOTO fin8
Warning[207]: Found label after column 1. (its1)
0007BC                01126     its1
0007BC 0C01           01127     RETLW 1
Warning[207]: Found label after column 1. (fin8)
0007BE                01128     fin8
                      01129     ;MOVWF result8
0007BE 0013           01130  RETURN 1
                      01131  
                      01132  
Warning[207]: Found label after column 1. (GETSIGNALS)
0007C0                01133  GETSIGNALS
0007C0 6A??           01134     CLRF RESULTHIGH
0007C2 6A??           01135     CLRF RESULTLOW
0007C4 EC?? F???      01136     CALL ADC_BASSES
0007C8 EC?? F???      01137     CALL FROM1024TO8
0007CC 6E??           01138     MOVWF puissanceB
                      01139     
0007CE 6A??           01140     CLRF RESULTHIGH
0007D0 6A??           01141     CLRF RESULTLOW
0007D2 EC?? F???      01142     CALL ADC_MEDIUM_BAS
0007D6 EC?? F???      01143     CALL FROM1024TO8
0007DA 6E??           01144     MOVWF puissanceMB
                      01145     
0007DC 6A??           01146     CLRF RESULTHIGH
0007DE 6A??           01147     CLRF RESULTLOW
0007E0 EC?? F???      01148     CALL ADC_MEDIUM_HAUT
0007E4 EC?? F???      01149     CALL FROM1024TO8
0007E8 6E??           01150     MOVWF puissanceMH
                      01151     
0007EA 6A??           01152     CLRF RESULTHIGH
MPASM 5.86              VUMETRE-LUMINEUX.ASM   1-13-2020  14:51:01         PAGE 25


LOC  OBJECT CODE     LINE SOURCE TEXT
  VALUE

0007EC 6A??           01153     CLRF RESULTLOW
0007EE EC?? F???      01154     CALL ADC_AIGUS
0007F2 EC?? F???      01155     CALL FROM1024TO8
0007F6 6E??           01156     MOVWF puissanceA
                      01157     
0007F8 EC?? F???      01158     CALL BASSES
0007FC EC?? F???      01159     CALL MEDIUM_BAS
000800 EC?? F???      01160     CALL MEDIUM_HAUT
000804 EC?? F???      01161     CALL AIGUS
000808 EC?? F???      01162     CALL LED_END
00080C 0013           01163  RETURN 1
                      01164  
                      01165  
                      01166  
                      01167  
                      01168  
Warning[207]: Found label after column 1. (POCE_BLO)
00080E                01169  POCE_BLO
00080E EC?? F???      01170     CALL LED_NOIRE
000812 EC?? F???      01171     CALL LED_BLEUE
000816 EC?? F???      01172     CALL LED_BLEUE
00081A EC?? F???      01173     CALL LED_BLEUE
00081E EC?? F???      01174     CALL LED_NOIRE
000822 EC?? F???      01175     CALL LED_NOIRE
000826 EC?? F???      01176     CALL LED_NOIRE
00082A EC?? F???      01177     CALL LED_NOIRE
                      01178     
00082E EC?? F???      01179     CALL LED_NOIRE
000832 EC?? F???      01180     CALL LED_BLEUE
000836 EC?? F???      01181     CALL LED_BLEUE
00083A EC?? F???      01182     CALL LED_BLEUE
00083E EC?? F???      01183     CALL LED_NOIRE
000842 EC?? F???      01184     CALL LED_NOIRE
000846 EC?? F???      01185     CALL LED_NOIRE
00084A EC?? F???      01186     CALL LED_NOIRE
                      01187     
00084E EC?? F???      01188     CALL LED_NOIRE
000852 EC?? F???      01189     CALL LED_BLEUE
000856 EC?? F???      01190     CALL LED_BLEUE
00085A EC?? F???      01191     CALL LED_BLEUE
00085E EC?? F???      01192     CALL LED_NOIRE
000862 EC?? F???      01193     CALL LED_NOIRE
000866 EC?? F???      01194     CALL LED_NOIRE
00086A EC?? F???      01195     CALL LED_NOIRE
                      01196     
00086E EC?? F???      01197     CALL LED_NOIRE
000872 EC?? F???      01198     CALL LED_BLEUE
000876 EC?? F???      01199     CALL LED_BLANCHE
00087A EC?? F???      01200     CALL LED_BLANCHE
00087E EC?? F???      01201     CALL LED_BLEUE
000882 EC?? F???      01202     CALL LED_NOIRE
000886 EC?? F???      01203     CALL LED_NOIRE
00088A EC?? F???      01204     CALL LED_NOIRE
MPASM 5.86              VUMETRE-LUMINEUX.ASM   1-13-2020  14:51:01         PAGE 26


LOC  OBJECT CODE     LINE SOURCE TEXT
  VALUE

                      01205     
00088E EC?? F???      01206     CALL LED_BLEUE
000892 EC?? F???      01207     CALL LED_BLANCHE
000896 EC?? F???      01208     CALL LED_BLANCHE
00089A EC?? F???      01209     CALL LED_BLANCHE
00089E EC?? F???      01210     CALL LED_BLANCHE
0008A2 EC?? F???      01211     CALL LED_BLEUE
0008A6 EC?? F???      01212     CALL LED_BLEUE
0008AA EC?? F???      01213     CALL LED_NOIRE
                      01214     
0008AE EC?? F???      01215     CALL LED_BLEUE
0008B2 EC?? F???      01216     CALL LED_BLANCHE
0008B6 EC?? F???      01217     CALL LED_BLANCHE
0008BA EC?? F???      01218     CALL LED_BLANCHE
0008BE EC?? F???      01219     CALL LED_BLANCHE
0008C2 EC?? F???      01220     CALL LED_BLEUE
0008C6 EC?? F???      01221     CALL LED_BLEUE
0008CA EC?? F???      01222     CALL LED_BLEUE
                      01223     
0008CE EC?? F???      01224     CALL LED_BLEUE
0008D2 EC?? F???      01225     CALL LED_BLANCHE
0008D6 EC?? F???      01226     CALL LED_BLANCHE
0008DA EC?? F???      01227     CALL LED_BLANCHE
0008DE EC?? F???      01228     CALL LED_BLEUE
0008E2 EC?? F???      01229     CALL LED_NOIRE
0008E6 EC?? F???      01230     CALL LED_NOIRE
0008EA EC?? F???      01231     CALL LED_NOIRE
                      01232     
0008EE EC?? F???      01233     CALL LED_NOIRE
0008F2 EC?? F???      01234     CALL LED_BLEUE
0008F6 EC?? F???      01235     CALL LED_BLEUE
0008FA EC?? F???      01236     CALL LED_BLEUE
0008FE EC?? F???      01237     CALL LED_BLEUE
000902 EC?? F???      01238     CALL LED_NOIRE
000906 EC?? F???      01239     CALL LED_NOIRE
00090A EC?? F???      01240     CALL LED_NOIRE
                      01241     
00090E 0012           01242  RETURN
                      01243  
Warning[207]: Found label after column 1. (FACEBOOK)
000910                01244  FACEBOOK
000910 EC?? F???      01245     CALL LED_NOIRE
000914 EC?? F???      01246     CALL LED_BLEUE
000918 EC?? F???      01247     CALL LED_BLEUE
00091C EC?? F???      01248     CALL LED_BLEUE
000920 EC?? F???      01249     CALL LED_BLEUE
000924 EC?? F???      01250     CALL LED_BLEUE
000928 EC?? F???      01251     CALL LED_BLEUE
00092C EC?? F???      01252     CALL LED_NOIRE
                      01253     
                      01254     
000930 EC?? F???      01255     CALL LED_BLEUE
000934 EC?? F???      01256     CALL LED_BLEUE
MPASM 5.86              VUMETRE-LUMINEUX.ASM   1-13-2020  14:51:01         PAGE 27


LOC  OBJECT CODE     LINE SOURCE TEXT
  VALUE

000938 EC?? F???      01257     CALL LED_BLEUE
00093C EC?? F???      01258     CALL LED_BLEUE
000940 EC?? F???      01259     CALL LED_BLEUE
000944 EC?? F???      01260     CALL LED_BLEUE
000948 EC?? F???      01261     CALL LED_BLEUE
00094C EC?? F???      01262     CALL LED_BLEUE
                      01263     
000950 EC?? F???      01264     CALL LED_BLEUE
000954 EC?? F???      01265     CALL LED_BLEUE
000958 EC?? F???      01266     CALL LED_BLEUE
00095C EC?? F???      01267     CALL LED_BLANCHE
000960 EC?? F???      01268     CALL LED_BLEUE
000964 EC?? F???      01269     CALL LED_BLEUE
000968 EC?? F???      01270     CALL LED_BLEUE
00096C EC?? F???      01271     CALL LED_BLEUE
                      01272     
000970 EC?? F???      01273     CALL LED_BLEUE
000974 EC?? F???      01274     CALL LED_BLANCHE
000978 EC?? F???      01275     CALL LED_BLANCHE
00097C EC?? F???      01276     CALL LED_BLANCHE
000980 EC?? F???      01277     CALL LED_BLANCHE
000984 EC?? F???      01278     CALL LED_BLANCHE
000988 EC?? F???      01279     CALL LED_BLEUE
00098C EC?? F???      01280     CALL LED_BLEUE
                      01281     
000990 EC?? F???      01282     CALL LED_BLEUE
000994 EC?? F???      01283     CALL LED_BLANCHE
000998 EC?? F???      01284     CALL LED_BLANCHE
00099C EC?? F???      01285     CALL LED_BLANCHE
0009A0 EC?? F???      01286     CALL LED_BLANCHE
0009A4 EC?? F???      01287     CALL LED_BLANCHE
0009A8 EC?? F???      01288     CALL LED_BLANCHE
0009AC EC?? F???      01289     CALL LED_BLEUE
                      01290     
0009B0 EC?? F???      01291     CALL LED_BLEUE
0009B4 EC?? F???      01292     CALL LED_BLEUE
0009B8 EC?? F???      01293     CALL LED_BLEUE
0009BC EC?? F???      01294     CALL LED_BLANCHE
0009C0 EC?? F???      01295     CALL LED_BLEUE
0009C4 EC?? F???      01296     CALL LED_BLANCHE
0009C8 EC?? F???      01297     CALL LED_BLANCHE
0009CC EC?? F???      01298     CALL LED_BLEUE
                      01299     
0009D0 EC?? F???      01300     CALL LED_BLEUE
0009D4 EC?? F???      01301     CALL LED_BLEUE
0009D8 EC?? F???      01302     CALL LED_BLEUE
0009DC EC?? F???      01303     CALL LED_BLEUE
0009E0 EC?? F???      01304     CALL LED_BLEUE
0009E4 EC?? F???      01305     CALL LED_BLANCHE
0009E8 EC?? F???      01306     CALL LED_BLANCHE
0009EC EC?? F???      01307     CALL LED_BLEUE
                      01308     
0009F0 EC?? F???      01309     CALL LED_NOIRE
MPASM 5.86              VUMETRE-LUMINEUX.ASM   1-13-2020  14:51:01         PAGE 28


LOC  OBJECT CODE     LINE SOURCE TEXT
  VALUE

0009F4 EC?? F???      01310     CALL LED_BLEUE
0009F8 EC?? F???      01311     CALL LED_BLEUE
0009FC EC?? F???      01312     CALL LED_BLEUE
000A00 EC?? F???      01313     CALL LED_BLEUE
000A04 EC?? F???      01314     CALL LED_BLEUE
000A08 EC?? F???      01315     CALL LED_BLEUE
000A0C EC?? F???      01316     CALL LED_NOIRE
                      01317     
000A10 0012           01318  RETURN
                      01319  
Warning[207]: Found label after column 1. (YOUTUBE)
000A12                01320  YOUTUBE
000A12 EC?? F???      01321     CALL LED_NOIRE
000A16 EC?? F???      01322     CALL LED_ROUGE
000A1A EC?? F???      01323     CALL LED_ROUGE
000A1E EC?? F???      01324     CALL LED_ROUGE
000A22 EC?? F???      01325     CALL LED_ROUGE
000A26 EC?? F???      01326     CALL LED_ROUGE
000A2A EC?? F???      01327     CALL LED_ROUGE
000A2E EC?? F???      01328     CALL LED_NOIRE
                      01329     
000A32 EC?? F???      01330     CALL LED_ROUGE
000A36 EC?? F???      01331     CALL LED_ROUGE
000A3A EC?? F???      01332     CALL LED_ROUGE
000A3E EC?? F???      01333     CALL LED_ROUGE
000A42 EC?? F???      01334     CALL LED_ROUGE
000A46 EC?? F???      01335     CALL LED_ROUGE
000A4A EC?? F???      01336     CALL LED_ROUGE
000A4E EC?? F???      01337     CALL LED_ROUGE
                      01338     
000A52 EC?? F???      01339     CALL LED_ROUGE
000A56 EC?? F???      01340     CALL LED_BLANCHE
000A5A EC?? F???      01341     CALL LED_BLANCHE
000A5E EC?? F???      01342     CALL LED_BLANCHE
000A62 EC?? F???      01343     CALL LED_BLANCHE
000A66 EC?? F???      01344     CALL LED_BLANCHE
000A6A EC?? F???      01345     CALL LED_BLANCHE
000A6E EC?? F???      01346     CALL LED_ROUGE
                      01347     
000A72 EC?? F???      01348     CALL LED_ROUGE
000A76 EC?? F???      01349     CALL LED_ROUGE
000A7A EC?? F???      01350     CALL LED_BLANCHE
000A7E EC?? F???      01351     CALL LED_BLANCHE
000A82 EC?? F???      01352     CALL LED_BLANCHE
000A86 EC?? F???      01353     CALL LED_BLANCHE
000A8A EC?? F???      01354     CALL LED_ROUGE
000A8E EC?? F???      01355     CALL LED_ROUGE
                      01356     
000A92 EC?? F???      01357     CALL LED_ROUGE
000A96 EC?? F???      01358     CALL LED_ROUGE
000A9A EC?? F???      01359     CALL LED_BLANCHE
000A9E EC?? F???      01360     CALL LED_BLANCHE
000AA2 EC?? F???      01361     CALL LED_BLANCHE
MPASM 5.86              VUMETRE-LUMINEUX.ASM   1-13-2020  14:51:01         PAGE 29


LOC  OBJECT CODE     LINE SOURCE TEXT
  VALUE

000AA6 EC?? F???      01362     CALL LED_BLANCHE
000AAA EC?? F???      01363     CALL LED_ROUGE
000AAE EC?? F???      01364     CALL LED_ROUGE
                      01365     
000AB2 EC?? F???      01366     CALL LED_ROUGE
000AB6 EC?? F???      01367     CALL LED_ROUGE
000ABA EC?? F???      01368     CALL LED_ROUGE
000ABE EC?? F???      01369     CALL LED_BLANCHE
000AC2 EC?? F???      01370     CALL LED_BLANCHE
000AC6 EC?? F???      01371     CALL LED_ROUGE
000ACA EC?? F???      01372     CALL LED_ROUGE
000ACE EC?? F???      01373     CALL LED_ROUGE
                      01374     
000AD2 EC?? F???      01375     CALL LED_ROUGE
000AD6 EC?? F???      01376     CALL LED_ROUGE
000ADA EC?? F???      01377     CALL LED_ROUGE
000ADE EC?? F???      01378     CALL LED_BLANCHE
000AE2 EC?? F???      01379     CALL LED_BLANCHE
000AE6 EC?? F???      01380     CALL LED_ROUGE
000AEA EC?? F???      01381     CALL LED_ROUGE
000AEE EC?? F???      01382     CALL LED_ROUGE
                      01383         
000AF2 EC?? F???      01384     CALL LED_NOIRE
000AF6 EC?? F???      01385     CALL LED_ROUGE
000AFA EC?? F???      01386     CALL LED_ROUGE
000AFE EC?? F???      01387     CALL LED_ROUGE
000B02 EC?? F???      01388     CALL LED_ROUGE
000B06 EC?? F???      01389     CALL LED_ROUGE
000B0A EC?? F???      01390     CALL LED_ROUGE
000B0E EC?? F???      01391     CALL LED_NOIRE
                      01392     
000B12 0012           01393  RETURN
                      01394  
Warning[207]: Found label after column 1. (TWEETER)
000B14                01395  TWEETER
000B14 EC?? F???      01396     CALL LED_NOIRE
000B18 EC?? F???      01397     CALL LED_BLEUE
000B1C EC?? F???      01398     CALL LED_BLEUE
000B20 EC?? F???      01399     CALL LED_BLEUE
000B24 EC?? F???      01400     CALL LED_BLEUE
000B28 EC?? F???      01401     CALL LED_BLEUE
000B2C EC?? F???      01402     CALL LED_BLEUE
000B30 EC?? F???      01403     CALL LED_NOIRE
                      01404     
000B34 EC?? F???      01405     CALL LED_BLEUE
000B38 EC?? F???      01406     CALL LED_BLEUE
000B3C EC?? F???      01407     CALL LED_BLEUE
000B40 EC?? F???      01408     CALL LED_BLEUE
000B44 EC?? F???      01409     CALL LED_BLEUE
000B48 EC?? F???      01410     CALL LED_BLEUE
000B4C EC?? F???      01411     CALL LED_BLEUE
000B50 EC?? F???      01412     CALL LED_BLEUE
                      01413     
MPASM 5.86              VUMETRE-LUMINEUX.ASM   1-13-2020  14:51:01         PAGE 30


LOC  OBJECT CODE     LINE SOURCE TEXT
  VALUE

000B54 EC?? F???      01414     CALL LED_BLEUE
000B58 EC?? F???      01415     CALL LED_BLANCHE
000B5C EC?? F???      01416     CALL LED_BLANCHE
000B60 EC?? F???      01417     CALL LED_BLANCHE
000B64 EC?? F???      01418     CALL LED_BLANCHE
000B68 EC?? F???      01419     CALL LED_BLANCHE
000B6C EC?? F???      01420     CALL LED_BLANCHE
000B70 EC?? F???      01421     CALL LED_BLEUE
                      01422     
000B74 EC?? F???      01423     CALL LED_BLANCHE
000B78 EC?? F???      01424     CALL LED_BLANCHE
000B7C EC?? F???      01425     CALL LED_BLANCHE
000B80 EC?? F???      01426     CALL LED_BLANCHE
000B84 EC?? F???      01427     CALL LED_BLANCHE
000B88 EC?? F???      01428     CALL LED_BLANCHE
000B8C EC?? F???      01429     CALL LED_BLANCHE
000B90 EC?? F???      01430     CALL LED_BLEUE
                      01431     
000B94 EC?? F???      01432     CALL LED_BLANCHE
000B98 EC?? F???      01433     CALL LED_BLANCHE
000B9C EC?? F???      01434     CALL LED_BLEUE
000BA0 EC?? F???      01435     CALL LED_BLANCHE
000BA4 EC?? F???      01436     CALL LED_BLANCHE
000BA8 EC?? F???      01437     CALL LED_BLEUE
000BAC EC?? F???      01438     CALL LED_BLEUE
000BB0 EC?? F???      01439     CALL LED_BLEUE
                      01440     
000BB4 EC?? F???      01441     CALL LED_BLANCHE
000BB8 EC?? F???      01442     CALL LED_BLANCHE
000BBC EC?? F???      01443     CALL LED_BLEUE
000BC0 EC?? F???      01444     CALL LED_BLANCHE
000BC4 EC?? F???      01445     CALL LED_BLANCHE
000BC8 EC?? F???      01446     CALL LED_BLEUE
000BCC EC?? F???      01447     CALL LED_BLEUE
000BD0 EC?? F???      01448     CALL LED_BLEUE
                      01449     
000BD4 EC?? F???      01450     CALL LED_BLEUE
000BD8 EC?? F???      01451     CALL LED_BLEUE
000BDC EC?? F???      01452     CALL LED_BLEUE
000BE0 EC?? F???      01453     CALL LED_BLANCHE
000BE4 EC?? F???      01454     CALL LED_BLANCHE
000BE8 EC?? F???      01455     CALL LED_BLEUE
000BEC EC?? F???      01456     CALL LED_BLEUE
000BF0 EC?? F???      01457     CALL LED_BLEUE
                      01458     
000BF4 EC?? F???      01459     CALL LED_NOIRE
000BF8 EC?? F???      01460     CALL LED_BLEUE
000BFC EC?? F???      01461     CALL LED_BLEUE
000C00 EC?? F???      01462     CALL LED_BLEUE
000C04 EC?? F???      01463     CALL LED_BLEUE
000C08 EC?? F???      01464     CALL LED_BLEUE
000C0C EC?? F???      01465     CALL LED_BLEUE
000C10 EC?? F???      01466     CALL LED_NOIRE
MPASM 5.86              VUMETRE-LUMINEUX.ASM   1-13-2020  14:51:01         PAGE 31


LOC  OBJECT CODE     LINE SOURCE TEXT
  VALUE

                      01467     
000C14 0012           01468  RETURN
                      01469  
                      01470  
                      01471  
                      01472  
Warning[207]: Found label after column 1. (RESEAUX_SOCIAUX)
000C16                01473  RESEAUX_SOCIAUX
000C16 EC?? F???      01474    CALL POCE_BLO
000C1A EC?? F???      01475    CALL LED_WAIT
000C1E EC?? F???      01476    CALL LED_WAIT
000C22 EC?? F???      01477    CALL LED_WAIT
000C26 EC?? F???      01478    CALL LED_WAIT
000C2A EC?? F???      01479    CALL LED_WAIT
000C2E EC?? F???      01480    CALL LED_WAIT
000C32 EC?? F???      01481    CALL LED_WAIT
000C36 EC?? F???      01482    CALL LED_WAIT
000C3A EC?? F???      01483    CALL LED_WAIT
000C3E EC?? F???      01484    CALL LED_WAIT
000C42 EC?? F???      01485    CALL LED_WAIT
000C46 EC?? F???      01486    CALL LED_WAIT
000C4A EC?? F???      01487    CALL LED_WAIT 
000C4E EC?? F???      01488    CALL LED_WAIT
000C52 EC?? F???      01489    CALL LED_WAIT
000C56 EC?? F???      01490    CALL LED_WAIT
000C5A EC?? F???      01491    CALL LED_WAIT
000C5E EC?? F???      01492    CALL LED_WAIT
000C62 EC?? F???      01493    CALL LED_WAIT
000C66 EC?? F???      01494    CALL LED_WAIT
000C6A EC?? F???      01495    CALL LED_WAIT
000C6E EC?? F???      01496    CALL LED_WAIT
000C72 EC?? F???      01497    CALL LED_WAIT
000C76 EC?? F???      01498    CALL LED_WAIT
000C7A EC?? F???      01499    CALL LED_WAIT
000C7E EC?? F???      01500    CALL LED_WAIT
000C82 EC?? F???      01501    CALL LED_WAIT
000C86 EC?? F???      01502    CALL TWEETER
000C8A EC?? F???      01503    CALL LED_WAIT
000C8E EC?? F???      01504    CALL LED_WAIT
000C92 EC?? F???      01505    CALL LED_WAIT
000C96 EC?? F???      01506    CALL LED_WAIT
000C9A EC?? F???      01507    CALL LED_WAIT
000C9E EC?? F???      01508    CALL LED_WAIT
000CA2 EC?? F???      01509    CALL LED_WAIT
000CA6 EC?? F???      01510    CALL LED_WAIT
000CAA EC?? F???      01511    CALL LED_WAIT
000CAE EC?? F???      01512    CALL LED_WAIT
000CB2 EC?? F???      01513    CALL LED_WAIT
000CB6 EC?? F???      01514    CALL LED_WAIT
000CBA EC?? F???      01515    CALL LED_WAIT 
000CBE EC?? F???      01516    CALL LED_WAIT
000CC2 EC?? F???      01517    CALL LED_WAIT
000CC6 EC?? F???      01518    CALL LED_WAIT
MPASM 5.86              VUMETRE-LUMINEUX.ASM   1-13-2020  14:51:01         PAGE 32


LOC  OBJECT CODE     LINE SOURCE TEXT
  VALUE

000CCA EC?? F???      01519    CALL LED_WAIT
000CCE EC?? F???      01520    CALL LED_WAIT
000CD2 EC?? F???      01521    CALL LED_WAIT
000CD6 EC?? F???      01522    CALL LED_WAIT
000CDA EC?? F???      01523    CALL LED_WAIT
000CDE EC?? F???      01524    CALL LED_WAIT
000CE2 EC?? F???      01525    CALL LED_WAIT
000CE6 EC?? F???      01526    CALL LED_WAIT
000CEA EC?? F???      01527    CALL LED_WAIT
000CEE EC?? F???      01528    CALL LED_WAIT
000CF2 EC?? F???      01529    CALL YOUTUBE
000CF6 EC?? F???      01530    CALL LED_WAIT
000CFA EC?? F???      01531    CALL LED_WAIT
000CFE EC?? F???      01532    CALL LED_WAIT
000D02 EC?? F???      01533    CALL LED_WAIT
000D06 EC?? F???      01534    CALL LED_WAIT
000D0A EC?? F???      01535    CALL LED_WAIT
000D0E EC?? F???      01536    CALL LED_WAIT
000D12 EC?? F???      01537    CALL LED_WAIT
000D16 EC?? F???      01538    CALL LED_WAIT
000D1A EC?? F???      01539    CALL LED_WAIT
000D1E EC?? F???      01540    CALL LED_WAIT
000D22 EC?? F???      01541    CALL LED_WAIT
000D26 EC?? F???      01542    CALL LED_WAIT 
000D2A EC?? F???      01543    CALL LED_WAIT
000D2E EC?? F???      01544    CALL LED_WAIT
000D32 EC?? F???      01545    CALL LED_WAIT
000D36 EC?? F???      01546    CALL LED_WAIT
000D3A EC?? F???      01547    CALL LED_WAIT
000D3E EC?? F???      01548    CALL LED_WAIT
000D42 EC?? F???      01549    CALL LED_WAIT
000D46 EC?? F???      01550    CALL LED_WAIT
000D4A EC?? F???      01551    CALL LED_WAIT
000D4E EC?? F???      01552    CALL LED_WAIT
000D52 EC?? F???      01553    CALL LED_WAIT
000D56 EC?? F???      01554    CALL LED_WAIT
000D5A EC?? F???      01555    CALL LED_WAIT
000D5E EC?? F???      01556    CALL LED_WAIT
000D62 EC?? F???      01557    CALL FACEBOOK
000D66 EC?? F???      01558    CALL LED_WAIT
000D6A EC?? F???      01559    CALL LED_WAIT
000D6E EC?? F???      01560    CALL LED_WAIT
000D72 EC?? F???      01561    CALL LED_WAIT
000D76 EC?? F???      01562    CALL LED_WAIT
000D7A EC?? F???      01563    CALL LED_WAIT
000D7E EC?? F???      01564    CALL LED_WAIT
000D82 EC?? F???      01565    CALL LED_WAIT
000D86 EC?? F???      01566    CALL LED_WAIT
000D8A EC?? F???      01567    CALL LED_WAIT
000D8E EC?? F???      01568    CALL LED_WAIT
000D92 EC?? F???      01569    CALL LED_WAIT
000D96 EC?? F???      01570    CALL LED_WAIT 
000D9A EC?? F???      01571    CALL LED_WAIT
MPASM 5.86              VUMETRE-LUMINEUX.ASM   1-13-2020  14:51:01         PAGE 33


LOC  OBJECT CODE     LINE SOURCE TEXT
  VALUE

000D9E EC?? F???      01572    CALL LED_WAIT
000DA2 EC?? F???      01573    CALL LED_WAIT
000DA6 EC?? F???      01574    CALL LED_WAIT
000DAA EC?? F???      01575    CALL LED_WAIT
000DAE EC?? F???      01576    CALL LED_WAIT
000DB2 EC?? F???      01577    CALL LED_WAIT
000DB6 EC?? F???      01578    CALL LED_WAIT
000DBA EC?? F???      01579    CALL LED_WAIT
000DBE EC?? F???      01580    CALL LED_WAIT
000DC2 EC?? F???      01581    CALL LED_WAIT
000DC6 EC?? F???      01582    CALL LED_WAIT
000DCA EC?? F???      01583    CALL LED_WAIT 
000DCE 0012           01584  RETURN
                      01585  
                      01586  
Warning[207]: Found label after column 1. (CUBE)
000DD0                01587  CUBE
000DD0 EC?? F???      01588     CALL LED_VERTE
000DD4 EC?? F???      01589     CALL LED_VERTE
000DD8 EC?? F???      01590     CALL LED_VERTE
000DDC EC?? F???      01591     CALL LED_VERTE
000DE0 EC?? F???      01592     CALL LED_VERTE
000DE4 EC?? F???      01593     CALL LED_VERTE
000DE8 EC?? F???      01594     CALL LED_VERTE
000DEC EC?? F???      01595     CALL LED_VERTE
                      01596     
000DF0 EC?? F???      01597     CALL LED_VERTE
000DF4 EC?? F???      01598     CALL LED_JAUNE
000DF8 EC?? F???      01599     CALL LED_JAUNE
000DFC EC?? F???      01600     CALL LED_JAUNE
000E00 EC?? F???      01601     CALL LED_JAUNE
000E04 EC?? F???      01602     CALL LED_JAUNE
000E08 EC?? F???      01603     CALL LED_JAUNE
000E0C EC?? F???      01604     CALL LED_VERTE
                      01605     
000E10 EC?? F???      01606     CALL LED_VERTE
000E14 EC?? F???      01607     CALL LED_JAUNE
000E18 EC?? F???      01608     CALL LED_ROUGE
000E1C EC?? F???      01609     CALL LED_ROUGE
000E20 EC?? F???      01610     CALL LED_ROUGE
000E24 EC?? F???      01611     CALL LED_ROUGE
000E28 EC?? F???      01612     CALL LED_JAUNE
000E2C EC?? F???      01613     CALL LED_VERTE
                      01614     
000E30 EC?? F???      01615     CALL LED_VERTE
000E34 EC?? F???      01616     CALL LED_JAUNE
000E38 EC?? F???      01617     CALL LED_ROUGE
000E3C EC?? F???      01618     CALL LED_JAUNE
000E40 EC?? F???      01619     CALL LED_JAUNE
000E44 EC?? F???      01620     CALL LED_ROUGE
000E48 EC?? F???      01621     CALL LED_JAUNE
000E4C EC?? F???      01622     CALL LED_VERTE
                      01623     
MPASM 5.86              VUMETRE-LUMINEUX.ASM   1-13-2020  14:51:01         PAGE 34


LOC  OBJECT CODE     LINE SOURCE TEXT
  VALUE

000E50 EC?? F???      01624     CALL LED_VERTE
000E54 EC?? F???      01625     CALL LED_JAUNE
000E58 EC?? F???      01626     CALL LED_ROUGE
000E5C EC?? F???      01627     CALL LED_JAUNE
000E60 EC?? F???      01628     CALL LED_JAUNE
000E64 EC?? F???      01629     CALL LED_ROUGE
000E68 EC?? F???      01630     CALL LED_JAUNE
000E6C EC?? F???      01631     CALL LED_VERTE
                      01632     
000E70 EC?? F???      01633     CALL LED_VERTE
000E74 EC?? F???      01634     CALL LED_JAUNE
000E78 EC?? F???      01635     CALL LED_ROUGE
000E7C EC?? F???      01636     CALL LED_ROUGE
000E80 EC?? F???      01637     CALL LED_ROUGE
000E84 EC?? F???      01638     CALL LED_ROUGE
000E88 EC?? F???      01639     CALL LED_JAUNE
000E8C EC?? F???      01640     CALL LED_VERTE
                      01641     
000E90 EC?? F???      01642     CALL LED_VERTE
000E94 EC?? F???      01643     CALL LED_JAUNE
000E98 EC?? F???      01644     CALL LED_JAUNE
000E9C EC?? F???      01645     CALL LED_JAUNE
000EA0 EC?? F???      01646     CALL LED_JAUNE
000EA4 EC?? F???      01647     CALL LED_JAUNE
000EA8 EC?? F???      01648     CALL LED_JAUNE
000EAC EC?? F???      01649     CALL LED_VERTE
                      01650     
000EB0 EC?? F???      01651     CALL LED_VERTE
000EB4 EC?? F???      01652     CALL LED_VERTE
000EB8 EC?? F???      01653     CALL LED_VERTE
000EBC EC?? F???      01654     CALL LED_VERTE
000EC0 EC?? F???      01655     CALL LED_VERTE
000EC4 EC?? F???      01656     CALL LED_VERTE
000EC8 EC?? F???      01657     CALL LED_VERTE
000ECC EC?? F???      01658     CALL LED_VERTE
                      01659     
000ED0 EC?? F???      01660     CALL LED_WAIT
000ED4 EC?? F???      01661     CALL LED_WAIT
000ED8 EC?? F???      01662     CALL LED_WAIT
000EDC EC?? F???      01663     CALL LED_WAIT
000EE0 EC?? F???      01664     CALL LED_WAIT
000EE4 EC?? F???      01665     CALL LED_WAIT
000EE8 EC?? F???      01666     CALL LED_WAIT
000EEC EC?? F???      01667     CALL LED_WAIT
                      01668     
000EF0 EC?? F???      01669     CALL LED_JAUNE
000EF4 EC?? F???      01670     CALL LED_JAUNE
000EF8 EC?? F???      01671     CALL LED_JAUNE
000EFC EC?? F???      01672     CALL LED_JAUNE
000F00 EC?? F???      01673     CALL LED_JAUNE
000F04 EC?? F???      01674     CALL LED_JAUNE
000F08 EC?? F???      01675     CALL LED_JAUNE
000F0C EC?? F???      01676     CALL LED_JAUNE
MPASM 5.86              VUMETRE-LUMINEUX.ASM   1-13-2020  14:51:01         PAGE 35


LOC  OBJECT CODE     LINE SOURCE TEXT
  VALUE

                      01677     
000F10 EC?? F???      01678     CALL LED_JAUNE
000F14 EC?? F???      01679     CALL LED_ROUGE
000F18 EC?? F???      01680     CALL LED_ROUGE
000F1C EC?? F???      01681     CALL LED_ROUGE
000F20 EC?? F???      01682     CALL LED_ROUGE
000F24 EC?? F???      01683     CALL LED_ROUGE
000F28 EC?? F???      01684     CALL LED_ROUGE
000F2C EC?? F???      01685     CALL LED_JAUNE
                      01686     
000F30 EC?? F???      01687     CALL LED_JAUNE
000F34 EC?? F???      01688     CALL LED_ROUGE
000F38 EC?? F???      01689     CALL LED_JAUNE
000F3C EC?? F???      01690     CALL LED_JAUNE
000F40 EC?? F???      01691     CALL LED_JAUNE
000F44 EC?? F???      01692     CALL LED_JAUNE
000F48 EC?? F???      01693     CALL LED_ROUGE
000F4C EC?? F???      01694     CALL LED_JAUNE
                      01695     
000F50 EC?? F???      01696     CALL LED_JAUNE
000F54 EC?? F???      01697     CALL LED_ROUGE
000F58 EC?? F???      01698     CALL LED_JAUNE
000F5C EC?? F???      01699     CALL LED_VERTE
000F60 EC?? F???      01700     CALL LED_VERTE
000F64 EC?? F???      01701     CALL LED_JAUNE
000F68 EC?? F???      01702     CALL LED_ROUGE
000F6C EC?? F???      01703     CALL LED_JAUNE
                      01704     
000F70 EC?? F???      01705     CALL LED_JAUNE
000F74 EC?? F???      01706     CALL LED_ROUGE
000F78 EC?? F???      01707     CALL LED_JAUNE
000F7C EC?? F???      01708     CALL LED_VERTE
000F80 EC?? F???      01709     CALL LED_VERTE
000F84 EC?? F???      01710     CALL LED_JAUNE
000F88 EC?? F???      01711     CALL LED_ROUGE
000F8C EC?? F???      01712     CALL LED_JAUNE
                      01713     
000F90 EC?? F???      01714     CALL LED_JAUNE
000F94 EC?? F???      01715     CALL LED_ROUGE
000F98 EC?? F???      01716     CALL LED_JAUNE
000F9C EC?? F???      01717     CALL LED_JAUNE
000FA0 EC?? F???      01718     CALL LED_JAUNE
000FA4 EC?? F???      01719     CALL LED_JAUNE
000FA8 EC?? F???      01720     CALL LED_ROUGE
000FAC EC?? F???      01721     CALL LED_JAUNE
                      01722     
000FB0 EC?? F???      01723     CALL LED_JAUNE
000FB4 EC?? F???      01724     CALL LED_ROUGE
000FB8 EC?? F???      01725     CALL LED_ROUGE
000FBC EC?? F???      01726     CALL LED_ROUGE
000FC0 EC?? F???      01727     CALL LED_ROUGE
000FC4 EC?? F???      01728     CALL LED_ROUGE
000FC8 EC?? F???      01729     CALL LED_ROUGE
MPASM 5.86              VUMETRE-LUMINEUX.ASM   1-13-2020  14:51:01         PAGE 36


LOC  OBJECT CODE     LINE SOURCE TEXT
  VALUE

000FCC EC?? F???      01730     CALL LED_JAUNE
                      01731     
000FD0 EC?? F???      01732     CALL LED_JAUNE
000FD4 EC?? F???      01733     CALL LED_JAUNE
000FD8 EC?? F???      01734     CALL LED_JAUNE
000FDC EC?? F???      01735     CALL LED_JAUNE
000FE0 EC?? F???      01736     CALL LED_JAUNE
000FE4 EC?? F???      01737     CALL LED_JAUNE
000FE8 EC?? F???      01738     CALL LED_JAUNE
000FEC EC?? F???      01739     CALL LED_JAUNE
                      01740     
000FF0 EC?? F???      01741     CALL LED_WAIT
000FF4 EC?? F???      01742     CALL LED_WAIT
000FF8 EC?? F???      01743     CALL LED_WAIT
000FFC EC?? F???      01744     CALL LED_WAIT
001000 EC?? F???      01745     CALL LED_WAIT
001004 EC?? F???      01746     CALL LED_WAIT
001008 EC?? F???      01747     CALL LED_WAIT
00100C EC?? F???      01748     CALL LED_WAIT
                      01749     
001010 EC?? F???      01750     CALL LED_ROUGE
001014 EC?? F???      01751     CALL LED_ROUGE
001018 EC?? F???      01752     CALL LED_ROUGE
00101C EC?? F???      01753     CALL LED_ROUGE
001020 EC?? F???      01754     CALL LED_ROUGE
001024 EC?? F???      01755     CALL LED_ROUGE
001028 EC?? F???      01756     CALL LED_ROUGE
00102C EC?? F???      01757     CALL LED_ROUGE
                      01758     
001030 EC?? F???      01759     CALL LED_ROUGE
001034 EC?? F???      01760     CALL LED_JAUNE
001038 EC?? F???      01761     CALL LED_JAUNE
00103C EC?? F???      01762     CALL LED_JAUNE
001040 EC?? F???      01763     CALL LED_JAUNE
001044 EC?? F???      01764     CALL LED_JAUNE
001048 EC?? F???      01765     CALL LED_JAUNE
00104C EC?? F???      01766     CALL LED_ROUGE
                      01767     
001050 EC?? F???      01768     CALL LED_ROUGE
001054 EC?? F???      01769     CALL LED_JAUNE
001058 EC?? F???      01770     CALL LED_VERTE
00105C EC?? F???      01771     CALL LED_VERTE
001060 EC?? F???      01772     CALL LED_VERTE
001064 EC?? F???      01773     CALL LED_VERTE
001068 EC?? F???      01774     CALL LED_JAUNE
00106C EC?? F???      01775     CALL LED_ROUGE
                      01776     
001070 EC?? F???      01777     CALL LED_ROUGE
001074 EC?? F???      01778     CALL LED_JAUNE
001078 EC?? F???      01779     CALL LED_VERTE
00107C EC?? F???      01780     CALL LED_JAUNE
001080 EC?? F???      01781     CALL LED_JAUNE
001084 EC?? F???      01782     CALL LED_VERTE
MPASM 5.86              VUMETRE-LUMINEUX.ASM   1-13-2020  14:51:01         PAGE 37


LOC  OBJECT CODE     LINE SOURCE TEXT
  VALUE

001088 EC?? F???      01783     CALL LED_JAUNE
00108C EC?? F???      01784     CALL LED_ROUGE
                      01785     
001090 EC?? F???      01786     CALL LED_ROUGE
001094 EC?? F???      01787     CALL LED_JAUNE
001098 EC?? F???      01788     CALL LED_VERTE
00109C EC?? F???      01789     CALL LED_JAUNE
0010A0 EC?? F???      01790     CALL LED_JAUNE
0010A4 EC?? F???      01791     CALL LED_VERTE
0010A8 EC?? F???      01792     CALL LED_JAUNE
0010AC EC?? F???      01793     CALL LED_ROUGE
                      01794     
0010B0 EC?? F???      01795     CALL LED_ROUGE
0010B4 EC?? F???      01796     CALL LED_JAUNE
0010B8 EC?? F???      01797     CALL LED_VERTE
0010BC EC?? F???      01798     CALL LED_VERTE
0010C0 EC?? F???      01799     CALL LED_VERTE
0010C4 EC?? F???      01800     CALL LED_VERTE
0010C8 EC?? F???      01801     CALL LED_JAUNE
0010CC EC?? F???      01802     CALL LED_ROUGE
                      01803     
0010D0 EC?? F???      01804     CALL LED_ROUGE
0010D4 EC?? F???      01805     CALL LED_JAUNE
0010D8 EC?? F???      01806     CALL LED_JAUNE
0010DC EC?? F???      01807     CALL LED_JAUNE
0010E0 EC?? F???      01808     CALL LED_JAUNE
0010E4 EC?? F???      01809     CALL LED_JAUNE
0010E8 EC?? F???      01810     CALL LED_JAUNE
0010EC EC?? F???      01811     CALL LED_ROUGE
                      01812     
0010F0 EC?? F???      01813     CALL LED_ROUGE
0010F4 EC?? F???      01814     CALL LED_ROUGE
0010F8 EC?? F???      01815     CALL LED_ROUGE
0010FC EC?? F???      01816     CALL LED_ROUGE
001100 EC?? F???      01817     CALL LED_ROUGE
001104 EC?? F???      01818     CALL LED_ROUGE
001108 EC?? F???      01819     CALL LED_ROUGE
00110C EC?? F???      01820     CALL LED_ROUGE
                      01821     
001110 EC?? F???      01822     CALL LED_WAIT
001114 EC?? F???      01823     CALL LED_WAIT
001118 EC?? F???      01824     CALL LED_WAIT
00111C EC?? F???      01825     CALL LED_WAIT
001120 EC?? F???      01826     CALL LED_WAIT
001124 EC?? F???      01827     CALL LED_WAIT
001128 EC?? F???      01828     CALL LED_WAIT
00112C EC?? F???      01829     CALL LED_WAIT
                      01830     
001130 EC?? F???      01831     CALL LED_JAUNE
001134 EC?? F???      01832     CALL LED_JAUNE
001138 EC?? F???      01833     CALL LED_JAUNE
00113C EC?? F???      01834     CALL LED_JAUNE
001140 EC?? F???      01835     CALL LED_JAUNE
MPASM 5.86              VUMETRE-LUMINEUX.ASM   1-13-2020  14:51:01         PAGE 38


LOC  OBJECT CODE     LINE SOURCE TEXT
  VALUE

001144 EC?? F???      01836     CALL LED_JAUNE
001148 EC?? F???      01837     CALL LED_JAUNE
00114C EC?? F???      01838     CALL LED_JAUNE
                      01839     
001150 EC?? F???      01840     CALL LED_JAUNE
001154 EC?? F???      01841     CALL LED_VERTE
001158 EC?? F???      01842     CALL LED_VERTE
00115C EC?? F???      01843     CALL LED_VERTE
001160 EC?? F???      01844     CALL LED_VERTE
001164 EC?? F???      01845     CALL LED_VERTE
001168 EC?? F???      01846     CALL LED_VERTE
00116C EC?? F???      01847     CALL LED_JAUNE
                      01848     
001170 EC?? F???      01849     CALL LED_JAUNE
001174 EC?? F???      01850     CALL LED_VERTE
001178 EC?? F???      01851     CALL LED_JAUNE
00117C EC?? F???      01852     CALL LED_JAUNE
001180 EC?? F???      01853     CALL LED_JAUNE
001184 EC?? F???      01854     CALL LED_JAUNE
001188 EC?? F???      01855     CALL LED_VERTE
00118C EC?? F???      01856     CALL LED_JAUNE
                      01857     
001190 EC?? F???      01858     CALL LED_JAUNE
001194 EC?? F???      01859     CALL LED_VERTE
001198 EC?? F???      01860     CALL LED_JAUNE
00119C EC?? F???      01861     CALL LED_ROUGE
0011A0 EC?? F???      01862     CALL LED_ROUGE
0011A4 EC?? F???      01863     CALL LED_JAUNE
0011A8 EC?? F???      01864     CALL LED_VERTE
0011AC EC?? F???      01865     CALL LED_JAUNE
                      01866     
0011B0 EC?? F???      01867     CALL LED_JAUNE
0011B4 EC?? F???      01868     CALL LED_VERTE
0011B8 EC?? F???      01869     CALL LED_JAUNE
0011BC EC?? F???      01870     CALL LED_ROUGE
0011C0 EC?? F???      01871     CALL LED_ROUGE
0011C4 EC?? F???      01872     CALL LED_JAUNE
0011C8 EC?? F???      01873     CALL LED_VERTE
0011CC EC?? F???      01874     CALL LED_JAUNE
                      01875     
0011D0 EC?? F???      01876     CALL LED_JAUNE
0011D4 EC?? F???      01877     CALL LED_VERTE
0011D8 EC?? F???      01878     CALL LED_JAUNE
0011DC EC?? F???      01879     CALL LED_JAUNE
0011E0 EC?? F???      01880     CALL LED_JAUNE
0011E4 EC?? F???      01881     CALL LED_JAUNE
0011E8 EC?? F???      01882     CALL LED_VERTE
0011EC EC?? F???      01883     CALL LED_JAUNE
                      01884     
0011F0 EC?? F???      01885     CALL LED_JAUNE
0011F4 EC?? F???      01886     CALL LED_VERTE
0011F8 EC?? F???      01887     CALL LED_VERTE
0011FC EC?? F???      01888     CALL LED_VERTE
MPASM 5.86              VUMETRE-LUMINEUX.ASM   1-13-2020  14:51:01         PAGE 39


LOC  OBJECT CODE     LINE SOURCE TEXT
  VALUE

001200 EC?? F???      01889     CALL LED_VERTE
001204 EC?? F???      01890     CALL LED_VERTE
001208 EC?? F???      01891     CALL LED_VERTE
00120C EC?? F???      01892     CALL LED_JAUNE
                      01893     
001210 EC?? F???      01894     CALL LED_JAUNE
001214 EC?? F???      01895     CALL LED_JAUNE
001218 EC?? F???      01896     CALL LED_JAUNE
00121C EC?? F???      01897     CALL LED_JAUNE
001220 EC?? F???      01898     CALL LED_JAUNE
001224 EC?? F???      01899     CALL LED_JAUNE
001228 EC?? F???      01900     CALL LED_JAUNE
00122C EC?? F???      01901     CALL LED_JAUNE
                      01902     
001230 EC?? F???      01903     CALL LED_WAIT
001234 EC?? F???      01904     CALL LED_WAIT
001238 EC?? F???      01905     CALL LED_WAIT
00123C EC?? F???      01906     CALL LED_WAIT
001240 EC?? F???      01907     CALL LED_WAIT
001244 EC?? F???      01908     CALL LED_WAIT
001248 EC?? F???      01909     CALL LED_WAIT
00124C EC?? F???      01910     CALL LED_WAIT
001250 0012           01911  RETURN
                      01912     
                      01913     
                      01914     
                      01915  
                      01916  
                      01917  
                      01918  
Warning[207]: Found label after column 1. (SMILEY)
001252                01919   SMILEY
                      01920  ;boucle_smiley
001252 EC?? F???      01921     CALL LED_NOIRE
001256 EC?? F???      01922     CALL LED_NOIRE
00125A EC?? F???      01923     CALL LED_BLEUE
00125E EC?? F???      01924     CALL LED_BLEUE
001262 EC?? F???      01925     CALL LED_BLEUE
001266 EC?? F???      01926     CALL LED_BLEUE
00126A EC?? F???      01927     CALL LED_NOIRE
00126E EC?? F???      01928     CALL LED_NOIRE
                      01929  
001272 EC?? F???      01930     CALL LED_NOIRE
001276 EC?? F???      01931     CALL LED_BLEUE
00127A EC?? F???      01932     CALL LED_NOIRE
00127E EC?? F???      01933     CALL LED_NOIRE
001282 EC?? F???      01934     CALL LED_NOIRE
001286 EC?? F???      01935     CALL LED_NOIRE
00128A EC?? F???      01936     CALL LED_BLEUE
00128E EC?? F???      01937     CALL LED_NOIRE
                      01938  
001292 EC?? F???      01939     CALL LED_BLEUE
001296 EC?? F???      01940     CALL LED_NOIRE
MPASM 5.86              VUMETRE-LUMINEUX.ASM   1-13-2020  14:51:01         PAGE 40


LOC  OBJECT CODE     LINE SOURCE TEXT
  VALUE

00129A EC?? F???      01941     CALL LED_NOIRE
00129E EC?? F???      01942     CALL LED_BLEUE
0012A2 EC?? F???      01943     CALL LED_NOIRE
0012A6 EC?? F???      01944     CALL LED_BLEUE
0012AA EC?? F???      01945     CALL LED_NOIRE
0012AE EC?? F???      01946     CALL LED_BLEUE
                      01947  
0012B2 EC?? F???      01948     CALL LED_BLEUE
0012B6 EC?? F???      01949     CALL LED_NOIRE
0012BA EC?? F???      01950     CALL LED_BLEUE
0012BE EC?? F???      01951     CALL LED_NOIRE
0012C2 EC?? F???      01952     CALL LED_NOIRE
0012C6 EC?? F???      01953     CALL LED_NOIRE
0012CA EC?? F???      01954     CALL LED_NOIRE
0012CE EC?? F???      01955     CALL LED_BLEUE
                      01956  
0012D2 EC?? F???      01957     CALL LED_BLEUE
0012D6 EC?? F???      01958     CALL LED_NOIRE
0012DA EC?? F???      01959     CALL LED_BLEUE
0012DE EC?? F???      01960     CALL LED_NOIRE
0012E2 EC?? F???      01961     CALL LED_NOIRE
0012E6 EC?? F???      01962     CALL LED_NOIRE
0012EA EC?? F???      01963     CALL LED_NOIRE
0012EE EC?? F???      01964     CALL LED_BLEUE
                      01965  
0012F2 EC?? F???      01966     CALL LED_BLEUE
0012F6 EC?? F???      01967     CALL LED_NOIRE
0012FA EC?? F???      01968     CALL LED_NOIRE
0012FE EC?? F???      01969     CALL LED_BLEUE
001302 EC?? F???      01970     CALL LED_NOIRE
001306 EC?? F???      01971     CALL LED_BLEUE
00130A EC?? F???      01972     CALL LED_NOIRE
00130E EC?? F???      01973     CALL LED_BLEUE
                      01974  
001312 EC?? F???      01975     CALL LED_NOIRE
001316 EC?? F???      01976     CALL LED_BLEUE
00131A EC?? F???      01977     CALL LED_NOIRE
00131E EC?? F???      01978     CALL LED_NOIRE
001322 EC?? F???      01979     CALL LED_NOIRE
001326 EC?? F???      01980     CALL LED_NOIRE
00132A EC?? F???      01981     CALL LED_BLEUE
00132E EC?? F???      01982     CALL LED_NOIRE
                      01983  
001332 EC?? F???      01984     CALL LED_NOIRE
001336 EC?? F???      01985     CALL LED_NOIRE
00133A EC?? F???      01986     CALL LED_BLEUE
00133E EC?? F???      01987     CALL LED_BLEUE
001342 EC?? F???      01988     CALL LED_BLEUE
001346 EC?? F???      01989     CALL LED_BLEUE
00134A EC?? F???      01990     CALL LED_NOIRE
00134E EC?? F???      01991     CALL LED_NOIRE
                      01992  
001352 EC?? F???      01993     CALL LED_WAIT
MPASM 5.86              VUMETRE-LUMINEUX.ASM   1-13-2020  14:51:01         PAGE 41


LOC  OBJECT CODE     LINE SOURCE TEXT
  VALUE

001356 EC?? F???      01994     CALL LED_WAIT
00135A EC?? F???      01995     CALL LED_WAIT
00135E EC?? F???      01996     CALL LED_WAIT
001362 EC?? F???      01997     CALL LED_WAIT
001366 EC?? F???      01998     CALL LED_WAIT
00136A EC?? F???      01999     CALL LED_WAIT
                      02000     
                      02001     
                      02002     
                      02003     
00136E EC?? F???      02004     CALL LED_NOIRE
001372 EC?? F???      02005     CALL LED_NOIRE
001376 EC?? F???      02006     CALL LED_ROUGE
00137A EC?? F???      02007     CALL LED_ROUGE
00137E EC?? F???      02008     CALL LED_ROUGE
001382 EC?? F???      02009     CALL LED_ROUGE
001386 EC?? F???      02010     CALL LED_NOIRE
00138A EC?? F???      02011     CALL LED_NOIRE
                      02012  
00138E EC?? F???      02013     CALL LED_NOIRE
001392 EC?? F???      02014     CALL LED_ROUGE
001396 EC?? F???      02015     CALL LED_NOIRE
00139A EC?? F???      02016     CALL LED_NOIRE
00139E EC?? F???      02017     CALL LED_NOIRE
0013A2 EC?? F???      02018     CALL LED_NOIRE
0013A6 EC?? F???      02019     CALL LED_ROUGE
0013AA EC?? F???      02020     CALL LED_NOIRE
                      02021  
0013AE EC?? F???      02022     CALL LED_ROUGE
0013B2 EC?? F???      02023     CALL LED_NOIRE
0013B6 EC?? F???      02024     CALL LED_ROUGE
0013BA EC?? F???      02025     CALL LED_NOIRE
0013BE EC?? F???      02026     CALL LED_NOIRE
0013C2 EC?? F???      02027     CALL LED_ROUGE
0013C6 EC?? F???      02028     CALL LED_NOIRE
0013CA EC?? F???      02029     CALL LED_ROUGE
                      02030  
0013CE EC?? F???      02031     CALL LED_ROUGE
0013D2 EC?? F???      02032     CALL LED_NOIRE
0013D6 EC?? F???      02033     CALL LED_NOIRE
0013DA EC?? F???      02034     CALL LED_ROUGE
0013DE EC?? F???      02035     CALL LED_NOIRE
0013E2 EC?? F???      02036     CALL LED_NOIRE
0013E6 EC?? F???      02037     CALL LED_NOIRE
0013EA EC?? F???      02038     CALL LED_ROUGE
                      02039  
0013EE EC?? F???      02040     CALL LED_ROUGE
0013F2 EC?? F???      02041     CALL LED_NOIRE
0013F6 EC?? F???      02042     CALL LED_NOIRE
0013FA EC?? F???      02043     CALL LED_ROUGE
0013FE EC?? F???      02044     CALL LED_NOIRE
001402 EC?? F???      02045     CALL LED_NOIRE
001406 EC?? F???      02046     CALL LED_NOIRE
MPASM 5.86              VUMETRE-LUMINEUX.ASM   1-13-2020  14:51:01         PAGE 42


LOC  OBJECT CODE     LINE SOURCE TEXT
  VALUE

00140A EC?? F???      02047     CALL LED_ROUGE
                      02048  
00140E EC?? F???      02049     CALL LED_ROUGE
001412 EC?? F???      02050     CALL LED_NOIRE
001416 EC?? F???      02051     CALL LED_ROUGE
00141A EC?? F???      02052     CALL LED_NOIRE
00141E EC?? F???      02053     CALL LED_NOIRE
001422 EC?? F???      02054     CALL LED_ROUGE
001426 EC?? F???      02055     CALL LED_NOIRE
00142A EC?? F???      02056     CALL LED_ROUGE
                      02057  
00142E EC?? F???      02058     CALL LED_NOIRE
001432 EC?? F???      02059     CALL LED_ROUGE
001436 EC?? F???      02060     CALL LED_NOIRE
00143A EC?? F???      02061     CALL LED_NOIRE
00143E EC?? F???      02062     CALL LED_NOIRE
001442 EC?? F???      02063     CALL LED_NOIRE
001446 EC?? F???      02064     CALL LED_ROUGE
00144A EC?? F???      02065     CALL LED_NOIRE
                      02066  
00144E EC?? F???      02067     CALL LED_NOIRE
001452 EC?? F???      02068     CALL LED_NOIRE
001456 EC?? F???      02069     CALL LED_ROUGE
00145A EC?? F???      02070     CALL LED_ROUGE
00145E EC?? F???      02071     CALL LED_ROUGE
001462 EC?? F???      02072     CALL LED_ROUGE
001466 EC?? F???      02073     CALL LED_NOIRE
00146A EC?? F???      02074     CALL LED_NOIRE
                      02075     
                      02076     
00146E EC?? F???      02077     CALL LED_WAIT
001472 EC?? F???      02078     CALL LED_WAIT
001476 EC?? F???      02079     CALL LED_WAIT
00147A EC?? F???      02080     CALL LED_WAIT
00147E EC?? F???      02081     CALL LED_WAIT
001482 EC?? F???      02082     CALL LED_WAIT
001486 EC?? F???      02083     CALL LED_WAIT
                      02084  ;GOTO boucle_smiley
00148A 0013           02085  RETURN 1
                      02086  
                      02087  
                      02088  
                      02089  
                      02090 ;*******************************************************************************
                      02091 ; MAIN PROGRAM
                      02092 ;*******************************************************************************
                      02093 
                      02094 MAIN_PROG CODE                      ; let linker place main program
                      02095 
000000                02096 STARTPRGM
                      02097 
                      02098     ; TODO Step #5 - Insert Your Program Here
                      02099 
MPASM 5.86              VUMETRE-LUMINEUX.ASM   1-13-2020  14:51:01         PAGE 43


LOC  OBJECT CODE     LINE SOURCE TEXT
  VALUE

000000 010F           02100     BANKSEL ADCON0 
000002 0E84           02101     MOVLW b'10000100'
000004 6F60           02102     MOVWF ADCON0,1 
000006 010F           02103     BANKSEL ADCON1 
000008 0E00           02104     MOVLW b'00000000' 
00000A 6F59           02105     MOVWF ADCON1,1
00000C 010F           02106     BANKSEL ADCLK
00000E 0E3F           02107     MOVLW b'00111111'
000010 6F57           02108     MOVWF ADCLK,1
000012 010F           02109     BANKSEL ADCON2
000014 0E00           02110     MOVLW b'00000000'
000016 6F5A           02111     MOVWF ADCON2,1
000018 010F           02112     BANKSEL ADACQ
00001A 6B5C           02113     CLRF ADACQ,1
00001C 010F           02114     BANKSEL ADPRE
00001E 6B5E           02115     CLRF ADPRE,1
000020 010F           02116     BANKSEL ADREF
000022 0E13           02117     MOVLW b'00010011'
000024 6F58           02118     MOVWF ADREF,1
000026 010F           02119     BANKSEL FVRCON
000028 0EC2           02120     MOVLW b'11000010'
00002A 6F31           02121     MOVWF FVRCON,1
                      02122 
00002C 0E00           02123    MOVLW b'00000000'
00002E 6FD8           02124    MOVWF OSCCON1
                      02125 
                      02126 
                      02127    ;MOVLW b'00000000'
                      02128    ;MOVWF TRISC
                      02129 
                      02130    ;MOVLW b'11111111'
                      02131    ;MOVWF LATC
                      02132 
000030 0ECF           02133    MOVLW b'11001111'
000032 6E89           02134    MOVWF TRISB
                      02135 
                      02136    ;MOVLW b'00010000'
                      02137    ;MOVWF LATB
                      02138 
                      02139 
000034 0EFF           02140    MOVLW b'11111111'
000036 6E88           02141    MOVWF TRISA
                      02142 
Warning[207]: Found label after column 1. (clignote)
000038                02143    clignote
000038 EC?? F???      02144       CALL Ruban_LED
                      02145       ;CALL GETSIGNALS
                      02146       ;CALL TEST_VOLUME
                      02147       ;CALL CUBE
                      02148       ;CALL RESEAUX_SOCIAUX
                      02149 
00003C EF?? F???      02150    GOTO clignote
                      02151    END
MPASM 5.86              VUMETRE-LUMINEUX.ASM   1-13-2020  14:51:01         PAGE 44


SYMBOL TABLE
  LABEL                             VALUE 

A                                 00000000
ABDEN                             00000000
ABDOVF                            00000007
ACC0                              00000000
ACC1                              00000001
ACC10                             00000002
ACC11                             00000003
ACC12                             00000004
ACC13                             00000005
ACC14                             00000006
ACC15                             00000007
ACC2                              00000002
ACC3                              00000003
ACC4                              00000004
ACC5                              00000005
ACC6                              00000006
ACC7                              00000007
ACC8                              00000000
ACC9                              00000001
ACCESS                            00000000
ACCM                              00000004
ACKDT                             00000005
ACKEN                             00000004
ACKSTAT                           00000006
ACKTIM                            00000007
ADACC                             00000F70
ADACC0                            00000000
ADACC1                            00000001
ADACC10                           00000002
ADACC11                           00000003
ADACC12                           00000004
ADACC13                           00000005
ADACC14                           00000006
ADACC15                           00000007
ADACC2                            00000002
ADACC3                            00000003
ADACC4                            00000004
ADACC5                            00000005
ADACC6                            00000006
ADACC7                            00000007
ADACC8                            00000000
ADACC9                            00000001
ADACCH                            00000F71
ADACCL                            00000F70
ADACLR                            00000003
ADACQ                             00000F5C
ADACQ0                            00000000
ADACQ1                            00000001
ADACQ2                            00000002
ADACQ3                            00000003
ADACQ4                            00000004
ADACQ5                            00000005
ADACQ6                            00000006
MPASM 5.86              VUMETRE-LUMINEUX.ASM   1-13-2020  14:51:01         PAGE 45


SYMBOL TABLE
  LABEL                             VALUE 

ADACQ7                            00000007
ADACT                             00000F56
ADACT0                            00000000
ADACT1                            00000001
ADACT2                            00000002
ADACT3                            00000003
ADACT4                            00000004
ADACTPPS                          00000EAE
ADACTPPS0                         00000000
ADACTPPS1                         00000001
ADACTPPS2                         00000002
ADACTPPS3                         00000003
ADACTPPS4                         00000004
ADAOV                             00000007
ADCALC0                           00000004
ADCALC1                           00000005
ADCALC2                           00000006
ADCAP                             00000F5D
ADCAP0                            00000000
ADCAP1                            00000001
ADCAP2                            00000002
ADCAP3                            00000003
ADCAP4                            00000004
ADCLK                             00000F57
ADCMD                             00000005
ADCNT                             00000F67
ADCNT0                            00000000
ADCNT1                            00000001
ADCNT2                            00000002
ADCNT3                            00000003
ADCNT4                            00000004
ADCNT5                            00000005
ADCNT6                            00000006
ADCNT7                            00000007
ADCON0                            00000F60
ADCON1                            00000F59
ADCON2                            00000F5A
ADCON3                            00000F5B
ADCONT                            00000006
ADCRS0                            00000004
ADCRS1                            00000005
ADCRS2                            00000006
ADCS                              00000004
ADCS0                             00000000
ADCS1                             00000001
ADCS2                             00000002
ADCS3                             00000003
ADCS4                             00000004
ADCS5                             00000005
ADC_AIGUS                         0000073C
ADC_BASSES                        000006DC
ADC_MEDIUM_BAS                    000006FC
ADC_MEDIUM_HAUT                   0000071C
MPASM 5.86              VUMETRE-LUMINEUX.ASM   1-13-2020  14:51:01         PAGE 46


SYMBOL TABLE
  LABEL                             VALUE 

ADDEN                             00000003
ADDSEN                            00000000
ADERR                             00000F6E
ADERR0                            00000000
ADERR1                            00000001
ADERR10                           00000002
ADERR11                           00000003
ADERR12                           00000004
ADERR13                           00000005
ADERR14                           00000006
ADERR15                           00000007
ADERR2                            00000002
ADERR3                            00000003
ADERR4                            00000004
ADERR5                            00000005
ADERR6                            00000006
ADERR7                            00000007
ADERR8                            00000000
ADERR9                            00000001
ADERRH                            00000F6F
ADERRL                            00000F6E
ADFLTR                            00000F72
ADFLTR0                           00000000
ADFLTR1                           00000001
ADFLTR10                          00000002
ADFLTR11                          00000003
ADFLTR12                          00000004
ADFLTR13                          00000005
ADFLTR14                          00000006
ADFLTR15                          00000007
ADFLTR2                           00000002
ADFLTR3                           00000003
ADFLTR4                           00000004
ADFLTR5                           00000005
ADFLTR6                           00000006
ADFLTR7                           00000007
ADFLTR8                           00000000
ADFLTR9                           00000001
ADFLTRH                           00000F73
ADFLTRL                           00000F72
ADFM                              00000002
ADFM0                             00000002
ADFVR0                            00000000
ADFVR1                            00000001
ADGO                              00000000
ADGPOL                            00000005
ADIE                              00000000
ADIF                              00000000
ADIP                              00000000
ADIPEN                            00000006
ADLTH                             00000F6A
ADLTH0                            00000000
ADLTH1                            00000001
MPASM 5.86              VUMETRE-LUMINEUX.ASM   1-13-2020  14:51:01         PAGE 47


SYMBOL TABLE
  LABEL                             VALUE 

ADLTH10                           00000002
ADLTH11                           00000003
ADLTH12                           00000004
ADLTH13                           00000005
ADLTH14                           00000006
ADLTH15                           00000007
ADLTH2                            00000002
ADLTH3                            00000003
ADLTH4                            00000004
ADLTH5                            00000005
ADLTH6                            00000006
ADLTH7                            00000007
ADLTH8                            00000000
ADLTH9                            00000001
ADLTHH                            00000F6B
ADLTHL                            00000F6A
ADLTHR                            00000005
ADMATH                            00000004
ADMD0                             00000000
ADMD1                             00000001
ADMD2                             00000002
ADMSK1                            00000001
ADMSK2                            00000002
ADMSK3                            00000003
ADMSK4                            00000004
ADMSK5                            00000005
ADNREF                            00000004
ADOEN                             00000002
ADON                              00000007
ADOR                              00000002
ADPCH                             00000F5F
ADPCH0                            00000000
ADPCH1                            00000001
ADPCH2                            00000002
ADPCH3                            00000003
ADPCH4                            00000004
ADPCH5                            00000005
ADPPOL                            00000007
ADPRE                             00000F5E
ADPRE0                            00000000
ADPRE1                            00000001
ADPRE2                            00000002
ADPRE3                            00000003
ADPRE4                            00000004
ADPRE5                            00000005
ADPRE6                            00000006
ADPRE7                            00000007
ADPREF0                           00000000
ADPREF1                           00000001
ADPREV                            00000F61
ADPREV0                           00000000
ADPREV1                           00000001
ADPREV10                          00000002
MPASM 5.86              VUMETRE-LUMINEUX.ASM   1-13-2020  14:51:01         PAGE 48


SYMBOL TABLE
  LABEL                             VALUE 

ADPREV11                          00000003
ADPREV12                          00000004
ADPREV13                          00000005
ADPREV14                          00000006
ADPREV15                          00000007
ADPREV2                           00000002
ADPREV3                           00000003
ADPREV4                           00000004
ADPREV5                           00000005
ADPREV6                           00000006
ADPREV7                           00000007
ADPREV8                           00000000
ADPREV9                           00000001
ADPREVH                           00000F62
ADPREVL                           00000F61
ADPSIS                            00000007
ADR0                              00000000
ADR1                              00000001
ADR2                              00000002
ADR3                              00000003
ADR4                              00000004
ADR5                              00000005
ADR6                              00000006
ADR7                              00000007
ADREF                             00000F58
ADRES                             00000F63
ADRES0                            00000000
ADRES1                            00000001
ADRES10                           00000002
ADRES11                           00000003
ADRES12                           00000004
ADRES13                           00000005
ADRES14                           00000006
ADRES15                           00000007
ADRES2                            00000002
ADRES3                            00000003
ADRES4                            00000004
ADRES5                            00000005
ADRES6                            00000006
ADRES7                            00000007
ADRES8                            00000000
ADRES9                            00000001
ADRESH                            00000F64
ADRESL                            00000F63
ADRPT                             00000F66
ADRPT0                            00000000
ADRPT1                            00000001
ADRPT2                            00000002
ADRPT3                            00000003
ADRPT4                            00000004
ADRPT5                            00000005
ADRPT6                            00000006
ADRPT7                            00000007
MPASM 5.86              VUMETRE-LUMINEUX.ASM   1-13-2020  14:51:01         PAGE 49


SYMBOL TABLE
  LABEL                             VALUE 

ADSOI                             00000003
ADSTAT                            00000F65
ADSTAT0                           00000000
ADSTAT1                           00000001
ADSTAT2                           00000002
ADSTPT                            00000F68
ADSTPT0                           00000000
ADSTPT1                           00000001
ADSTPT10                          00000002
ADSTPT11                          00000003
ADSTPT12                          00000004
ADSTPT13                          00000005
ADSTPT14                          00000006
ADSTPT15                          00000007
ADSTPT2                           00000002
ADSTPT3                           00000003
ADSTPT4                           00000004
ADSTPT5                           00000005
ADSTPT6                           00000006
ADSTPT7                           00000007
ADSTPT8                           00000000
ADSTPT9                           00000001
ADSTPTH                           00000F69
ADSTPTL                           00000F68
ADTIE                             00000001
ADTIF                             00000001
ADTIP                             00000001
ADTMD0                            00000000
ADTMD1                            00000001
ADTMD2                            00000002
ADUTH                             00000F6C
ADUTH0                            00000000
ADUTH1                            00000001
ADUTH10                           00000002
ADUTH11                           00000003
ADUTH12                           00000004
ADUTH13                           00000005
ADUTH14                           00000006
ADUTH15                           00000007
ADUTH2                            00000002
ADUTH3                            00000003
ADUTH4                            00000004
ADUTH5                            00000005
ADUTH6                            00000006
ADUTH7                            00000007
ADUTH8                            00000000
ADUTH9                            00000001
ADUTHH                            00000F6D
ADUTHL                            00000F6C
ADUTHR                            00000006
AHEN                              00000001
AIGUS                             00000514
ANSELA                            00000F11
MPASM 5.86              VUMETRE-LUMINEUX.ASM   1-13-2020  14:51:01         PAGE 50


SYMBOL TABLE
  LABEL                             VALUE 

ANSELA0                           00000000
ANSELA1                           00000001
ANSELA2                           00000002
ANSELA3                           00000003
ANSELA4                           00000004
ANSELA5                           00000005
ANSELA6                           00000006
ANSELA7                           00000007
ANSELB                            00000F19
ANSELB0                           00000000
ANSELB1                           00000001
ANSELB2                           00000002
ANSELB3                           00000003
ANSELB4                           00000004
ANSELB5                           00000005
ANSELB6                           00000006
ANSELB7                           00000007
ANSELC                            00000F21
ANSELC0                           00000000
ANSELC1                           00000001
ANSELC2                           00000002
ANSELC3                           00000003
ANSELC4                           00000004
ANSELC5                           00000005
ANSELC6                           00000006
ANSELC7                           00000007
AS0E                              00000000
AS1E                              00000001
AS2E                              00000002
AS3E                              00000003
AS4E                              00000004
AS5E                              00000005
BANKED                            00000001
BASSES                            000003CA
BAUD1CON                          00000F9F
BAUDCON                           00000F9F
BAUDCON1                          00000F9F
BAUDCTL                           00000F9F
BAUDCTL1                          00000F9F
BCL1IE                            00000001
BCL1IF                            00000001
BCL1IP                            00000001
BCLIE                             00000001
BCLIF                             00000001
BCLIP                             00000001
BF                                00000000
BIT                               00000000
BOEN                              00000004
BOR                               00000000
BORCON                            00000EE0
BORRDY                            00000000
BRG16                             00000003
BRGH                              00000002
MPASM 5.86              VUMETRE-LUMINEUX.ASM   1-13-2020  14:51:01         PAGE 51


SYMBOL TABLE
  LABEL                             VALUE 

BSR                               00000FE0
BUSY                              00000005
C                                 00000000
C1EN                              00000007
C1HYS                             00000001
C1IE                              00000000
C1IF                              00000000
C1INTN                            00000000
C1INTP                            00000001
C1IP                              00000000
C1NCH0                            00000000
C1NCH1                            00000001
C1NCH2                            00000002
C1OUT                             00000006
C1PCH0                            00000000
C1PCH1                            00000001
C1PCH2                            00000002
C1POL                             00000004
C1SYNC                            00000000
C1TSEL0                           00000000
C1TSEL1                           00000001
C2EN                              00000007
C2HYS                             00000001
C2IE                              00000001
C2IF                              00000001
C2INTN                            00000000
C2INTP                            00000001
C2IP                              00000001
C2NCH0                            00000000
C2NCH1                            00000001
C2NCH2                            00000002
C2OUT                             00000006
C2PCH0                            00000000
C2PCH1                            00000001
C2PCH2                            00000002
C2POL                             00000004
C2SYNC                            00000000
C2TSEL0                           00000002
C2TSEL1                           00000003
CCP1CAP                           00000FAD
CCP1CON                           00000FAC
CCP1CTS0                          00000000
CCP1CTS1                          00000001
CCP1EN                            00000007
CCP1FMT                           00000004
CCP1IE                            00000000
CCP1IF                            00000000
CCP1IP                            00000000
CCP1MD                            00000000
CCP1MODE0                         00000000
CCP1MODE1                         00000001
CCP1MODE2                         00000002
CCP1MODE3                         00000003
MPASM 5.86              VUMETRE-LUMINEUX.ASM   1-13-2020  14:51:01         PAGE 52


SYMBOL TABLE
  LABEL                             VALUE 

CCP1OUT                           00000005
CCP1PPS                           00000EAF
CCP1PPS0                          00000000
CCP1PPS1                          00000001
CCP1PPS2                          00000002
CCP1PPS3                          00000003
CCP1PPS4                          00000004
CCP2CAP                           00000FA9
CCP2CON                           00000FA8
CCP2CTS0                          00000000
CCP2CTS1                          00000001
CCP2EN                            00000007
CCP2FMT                           00000004
CCP2IE                            00000001
CCP2IF                            00000001
CCP2IP                            00000001
CCP2MD                            00000001
CCP2MODE0                         00000000
CCP2MODE1                         00000001
CCP2MODE2                         00000002
CCP2MODE3                         00000003
CCP2OUT                           00000005
CCP2PPS                           00000EB0
CCP2PPS0                          00000000
CCP2PPS1                          00000001
CCP2PPS2                          00000002
CCP2PPS3                          00000003
CCP2PPS4                          00000004
CCPR1                             00000FAA
CCPR1H                            00000FAB
CCPR1L                            00000FAA
CCPR2                             00000FA6
CCPR2H                            00000FA7
CCPR2L                            00000FA6
CCPTMRS                           00000FAE
CDAFVR0                           00000002
CDAFVR1                           00000003
CDIV0                             00000000
CDIV1                             00000001
CDIV2                             00000002
CDIV3                             00000003
CHPOL                             00000005
CHS0                              00000000
CHS1                              00000001
CHS2                              00000002
CHSYNC                            00000004
CINQ_DE_PUISSANCE                 000002C2
CK1PPS                            00000EB6
CKE                               00000006
CKP                               00000004
CKPOL                             00000006
CKPPS                             00000EB6
CKPS0                             00000004
MPASM 5.86              VUMETRE-LUMINEUX.ASM   1-13-2020  14:51:01         PAGE 53


SYMBOL TABLE
  LABEL                             VALUE 

CKPS1                             00000005
CKPS2                             00000006
CKSYNC                            00000005
CLK0                              00000000
CLK1                              00000001
CLK2                              00000002
CLKRCLK                           00000F3F
CLKRCLK0                          00000000
CLKRCLK1                          00000001
CLKRCLK2                          00000002
CLKRCON                           00000F3E
CLKRDC0                           00000003
CLKRDC1                           00000004
CLKRDIV0                          00000000
CLKRDIV1                          00000001
CLKRDIV2                          00000002
CLKREN                            00000007
CLKRMD                            00000001
CLPOL                             00000001
CLS0                              00000000
CLS1                              00000001
CLS2                              00000002
CLSYNC                            00000000
CM1CON0                           00000F39
CM1CON1                           00000F3A
CM1NCH                            00000F3B
CM1PCH                            00000F3C
CM2CON0                           00000F35
CM2CON1                           00000F36
CM2NCH                            00000F37
CM2PCH                            00000F38
CMOUT                             00000F3D
CMP1MD                            00000001
CMP2MD                            00000002
COSC0                             00000004
COSC1                             00000005
COSC2                             00000006
CPUDOZE                           00000ED7
CRCACC                            00000F76
CRCACCH                           00000F77
CRCACCL                           00000F76
CRCCON0                           00000F7C
CRCCON1                           00000F7D
CRCDATA                           00000F74
CRCDATH                           00000F75
CRCDATL                           00000F74
CRCEN                             00000007
CRCGO                             00000006
CRCIE                             00000006
CRCIF                             00000006
CRCIP                             00000006
CRCMD                             00000004
CRCSHFT                           00000F78
MPASM 5.86              VUMETRE-LUMINEUX.ASM   1-13-2020  14:51:01         PAGE 54


SYMBOL TABLE
  LABEL                             VALUE 

CRCSHIFTH                         00000F79
CRCSHIFTL                         00000F78
CRCXOR                            00000F7A
CRCXORH                           00000F7B
CRCXORL                           00000F7A
CREN                              00000004
CS                                00000000
CS0                               00000000
CS1                               00000001
CS2                               00000002
CS3                               00000003
CSRC                              00000007
CSWHOLD                           00000007
CSWIE                             00000006
CSWIF                             00000006
CSWIP                             00000006
CTS0                              00000000
CTS1                              00000001
CUBE                              00000DD0
CWG1AS0                           00000F46
CWG1AS1                           00000F47
CWG1CLK                           00000F40
CWG1CLKCON                        00000F40
CWG1CON0                          00000F44
CWG1CON1                          00000F45
CWG1CS                            00000000
CWG1DBF                           00000F43
CWG1DBF0                          00000000
CWG1DBF1                          00000001
CWG1DBF2                          00000002
CWG1DBF3                          00000003
CWG1DBF4                          00000004
CWG1DBF5                          00000005
CWG1DBR                           00000F42
CWG1DBR0                          00000000
CWG1DBR1                          00000001
CWG1DBR2                          00000002
CWG1DBR3                          00000003
CWG1DBR4                          00000004
CWG1DBR5                          00000005
CWG1EN                            00000007
CWG1IE                            00000000
CWG1IF                            00000000
CWG1IN                            00000005
CWG1INPPS0                        00000000
CWG1INPPS1                        00000001
CWG1INPPS2                        00000002
CWG1INPPS3                        00000003
CWG1INPPS4                        00000004
CWG1IP                            00000000
CWG1ISM                           00000F41
CWG1ISM0                          00000000
CWG1ISM1                          00000001
MPASM 5.86              VUMETRE-LUMINEUX.ASM   1-13-2020  14:51:01         PAGE 55


SYMBOL TABLE
  LABEL                             VALUE 

CWG1ISM2                          00000002
CWG1ISM3                          00000003
CWG1LD                            00000006
CWG1LSAC0                         00000002
CWG1LSAC1                         00000003
CWG1LSBD0                         00000004
CWG1LSBD1                         00000005
CWG1MD                            00000000
CWG1MODE0                         00000000
CWG1MODE1                         00000001
CWG1MODE2                         00000002
CWG1OVRA                          00000004
CWG1OVRB                          00000005
CWG1OVRC                          00000006
CWG1OVRD                          00000007
CWG1POLA                          00000000
CWG1POLB                          00000001
CWG1POLC                          00000002
CWG1POLD                          00000003
CWG1PPS                           00000EB1
CWG1REN                           00000006
CWG1SHUTDOWN                      00000007
CWG1STR                           00000F48
CWG1STRA                          00000000
CWG1STRB                          00000001
CWG1STRC                          00000002
CWG1STRD                          00000003
CWGIE                             00000000
CWGIF                             00000000
CWGINPPS                          00000EB1
CWGINPPS0                         00000000
CWGINPPS1                         00000001
CWGINPPS2                         00000002
CWGINPPS3                         00000003
CWGINPPS4                         00000004
CWGIP                             00000000
CWGMD                             00000000
DABORT                            00000004
DAC1CON0                          00000F33
DAC1CON1                          00000F34
DAC1EN                            00000007
DAC1NSS                           00000000
DAC1OE1                           00000005
DAC1OE2                           00000004
DAC1PSS0                          00000002
DAC1PSS1                          00000003
DAC1R0                            00000000
DAC1R1                            00000001
DAC1R2                            00000002
DAC1R3                            00000003
DAC1R4                            00000004
DACMD                             00000006
DATA0                             00000000
MPASM 5.86              VUMETRE-LUMINEUX.ASM   1-13-2020  14:51:01         PAGE 56


SYMBOL TABLE
  LABEL                             VALUE 

DATA1                             00000001
DATA10                            00000002
DATA11                            00000003
DATA12                            00000004
DATA13                            00000005
DATA14                            00000006
DATA15                            00000007
DATA2                             00000002
DATA3                             00000003
DATA4                             00000004
DATA5                             00000005
DATA6                             00000006
DATA7                             00000007
DATA8                             00000000
DATA9                             00000001
DATA_ADDRESS                      00000005
DBF0                              00000000
DBF1                              00000001
DBF2                              00000002
DBF3                              00000003
DBF4                              00000004
DBF5                              00000005
DBR0                              00000000
DBR1                              00000001
DBR2                              00000002
DBR3                              00000003
DBR4                              00000004
DBR5                              00000005
DC                                00000001
DC0_CLKRCON                       00000003
DC0_PWM3DCL                       00000006
DC0_PWM4DCL                       00000006
DC1_CLKRCON                       00000004
DC1_PWM3DCL                       00000007
DC1_PWM4DCL                       00000007
DC2                               00000000
DC3                               00000001
DC4                               00000002
DC5                               00000003
DC6                               00000004
DC7                               00000005
DC8                               00000006
DC9                               00000007
DDRA                              TRISA
DDRB                              TRISB
DDRC                              TRISC
DDRD                              TRISD
DDRE                              TRISE
DEUX_DE_PUISSANCE                 000001FC
DHEN                              00000000
DIV0                              00000000
DIV1                              00000001
DIV2                              00000002
MPASM 5.86              VUMETRE-LUMINEUX.ASM   1-13-2020  14:51:01         PAGE 57


SYMBOL TABLE
  LABEL                             VALUE 

DLEN0                             00000004
DLEN1                             00000005
DLEN2                             00000006
DLEN3                             00000007
DOE                               00000004
DONE                              00000000
DOZE0                             00000000
DOZE1                             00000001
DOZE2                             00000002
DOZEN                             00000006
DSMMD                             00000000
D_A                               00000005
D_NOT_A                           00000005
EN                                00000007
EXTOEN                            00000007
EXTOR                             00000007
FACEBOOK                          00000910
FAST                              00000001
FERR                              00000002
FMT                               00000004
FREE                              00000004
FROM1024TO8                       0000075C
FRQ0                              00000000
FRQ1                              00000001
FRQ2                              00000002
FRQ3                              00000003
FSR0                              00000000
FSR0H                             00000FEA
FSR0L                             00000FE9
FSR1                              00000001
FSR1H                             00000FE2
FSR1L                             00000FE1
FSR2                              00000002
FSR2H                             00000FDA
FSR2L                             00000FD9
FULL                              00000000
FVRCON                            00000F31
FVREN                             00000007
FVRMD                             00000006
FVRRDY                            00000006
G1EN                              00000007
GCEN                              00000007
GE                                00000007
GETSIGNALS                        000007C0
GGO_NOT_DONE                      00000003
GIE                               00000007
GIEH                              00000007
GIEL                              00000006
GIE_GIEH                          00000007
GO_ADCON0                         00000000
GO_NOT_DONE                       00000000
GO_SCANCON0                       00000006
GPOL                              00000006
MPASM 5.86              VUMETRE-LUMINEUX.ASM   1-13-2020  14:51:01         PAGE 58


SYMBOL TABLE
  LABEL                             VALUE 

GSPM                              00000004
GSS0                              00000000
GSS1                              00000001
GSS2                              00000002
GSS3                              00000003
GTM                               00000005
GVAL                              00000002
HADR0                             00000000
HADR1                             00000001
HADR10                            00000002
HADR11                            00000003
HADR12                            00000004
HADR13                            00000005
HADR14                            00000006
HADR15                            00000007
HADR16                            00000000
HADR17                            00000001
HADR18                            00000002
HADR19                            00000003
HADR2                             00000002
HADR20                            00000004
HADR21                            00000005
HADR3                             00000003
HADR4                             00000004
HADR5                             00000005
HADR6                             00000006
HADR7                             00000007
HADR8                             00000000
HADR9                             00000001
HFOEN                             00000006
HFOR                              00000006
HLVDCON0                          00000F2F
HLVDCON1                          00000F30
HLVDEN                            00000007
HLVDIE                            00000007
HLVDIF                            00000007
HLVDINTH                          00000001
HLVDINTL                          00000000
HLVDIP                            00000007
HLVDMD                            00000005
HLVDOUT                           00000005
HLVDRDY                           00000004
HLVDSEL0                          00000000
HLVDSEL1                          00000001
HLVDSEL2                          00000002
HLVDSEL3                          00000003
HUIT_DE_PUISSANCE                 00000388
HYS                               00000001
I2C_DAT                           00000005
I2C_READ                          00000002
I2C_START                         00000003
I2C_STOP                          00000004
IDLEN                             00000007
MPASM 5.86              VUMETRE-LUMINEUX.ASM   1-13-2020  14:51:01         PAGE 59


SYMBOL TABLE
  LABEL                             VALUE 

IN                                00000005
INDF0                             00000FEF
INDF1                             00000FE7
INDF2                             00000FDF
INLVLA                            00000F0D
INLVLA0                           00000000
INLVLA1                           00000001
INLVLA2                           00000002
INLVLA3                           00000003
INLVLA4                           00000004
INLVLA5                           00000005
INLVLA6                           00000006
INLVLA7                           00000007
INLVLB                            00000F15
INLVLB0                           00000000
INLVLB1                           00000001
INLVLB2                           00000002
INLVLB3                           00000003
INLVLB4                           00000004
INLVLB5                           00000005
INLVLB6                           00000006
INLVLB7                           00000007
INLVLC                            00000F1D
INLVLC0                           00000000
INLVLC1                           00000001
INLVLC2                           00000002
INLVLC3                           00000003
INLVLC4                           00000004
INLVLC5                           00000005
INLVLC6                           00000006
INLVLC7                           00000007
INLVLE                            00000F2A
INLVLE3                           00000003
INT0EDG                           00000000
INT0IE                            00000000
INT0IF                            00000000
INT0IP                            00000000
INT0PPS                           00000EA1
INT0PPS0                          00000000
INT0PPS1                          00000001
INT0PPS2                          00000002
INT0PPS3                          00000003
INT1EDG                           00000001
INT1IE                            00000001
INT1IF                            00000001
INT1IP                            00000001
INT1PPS                           00000EA2
INT1PPS0                          00000000
INT1PPS1                          00000001
INT1PPS2                          00000002
INT1PPS3                          00000003
INT2EDG                           00000002
INT2IE                            00000002
MPASM 5.86              VUMETRE-LUMINEUX.ASM   1-13-2020  14:51:01         PAGE 60


SYMBOL TABLE
  LABEL                             VALUE 

INT2IF                            00000002
INT2IP                            00000002
INT2PPS                           00000EA3
INT2PPS0                          00000000
INT2PPS1                          00000001
INT2PPS2                          00000002
INT2PPS3                          00000003
INTCON                            00000FF2
INTH                              00000001
INTL                              00000000
INTM                              00000003
INTN                              00000000
INTP                              00000001
INVALID                           00000004
IOCAF                             00000F0A
IOCAF0                            00000000
IOCAF1                            00000001
IOCAF2                            00000002
IOCAF3                            00000003
IOCAF4                            00000004
IOCAF5                            00000005
IOCAF6                            00000006
IOCAF7                            00000007
IOCAN                             00000F0B
IOCAN0                            00000000
IOCAN1                            00000001
IOCAN2                            00000002
IOCAN3                            00000003
IOCAN4                            00000004
IOCAN5                            00000005
IOCAN6                            00000006
IOCAN7                            00000007
IOCAP                             00000F0C
IOCAP0                            00000000
IOCAP1                            00000001
IOCAP2                            00000002
IOCAP3                            00000003
IOCAP4                            00000004
IOCAP5                            00000005
IOCAP6                            00000006
IOCAP7                            00000007
IOCBF                             00000F12
IOCBF0                            00000000
IOCBF1                            00000001
IOCBF2                            00000002
IOCBF3                            00000003
IOCBF4                            00000004
IOCBF5                            00000005
IOCBF6                            00000006
IOCBF7                            00000007
IOCBN                             00000F13
IOCBN0                            00000000
IOCBN1                            00000001
MPASM 5.86              VUMETRE-LUMINEUX.ASM   1-13-2020  14:51:01         PAGE 61


SYMBOL TABLE
  LABEL                             VALUE 

IOCBN2                            00000002
IOCBN3                            00000003
IOCBN4                            00000004
IOCBN5                            00000005
IOCBN6                            00000006
IOCBN7                            00000007
IOCBP                             00000F14
IOCBP0                            00000000
IOCBP1                            00000001
IOCBP2                            00000002
IOCBP3                            00000003
IOCBP4                            00000004
IOCBP5                            00000005
IOCBP6                            00000006
IOCBP7                            00000007
IOCCF                             00000F1A
IOCCF0                            00000000
IOCCF1                            00000001
IOCCF2                            00000002
IOCCF3                            00000003
IOCCF4                            00000004
IOCCF5                            00000005
IOCCF6                            00000006
IOCCF7                            00000007
IOCCN                             00000F1B
IOCCN0                            00000000
IOCCN1                            00000001
IOCCN2                            00000002
IOCCN3                            00000003
IOCCN4                            00000004
IOCCN5                            00000005
IOCCN6                            00000006
IOCCN7                            00000007
IOCCP                             00000F1C
IOCCP0                            00000000
IOCCP1                            00000001
IOCCP2                            00000002
IOCCP3                            00000003
IOCCP4                            00000004
IOCCP5                            00000005
IOCCP6                            00000006
IOCCP7                            00000007
IOCEF                             00000F27
IOCEF3                            00000003
IOCEN                             00000F28
IOCEN3                            00000003
IOCEP                             00000F29
IOCEP3                            00000003
IOCIE                             00000004
IOCIF                             00000004
IOCIP                             00000004
IOCMD                             00000000
IPEN                              00000005
MPASM 5.86              VUMETRE-LUMINEUX.ASM   1-13-2020  14:51:01         PAGE 62


SYMBOL TABLE
  LABEL                             VALUE 

IPR0                              00000EBA
IPR1                              00000EBB
IPR2                              00000EBC
IPR3                              00000EBD
IPR4                              00000EBE
IPR5                              00000EBF
IPR6                              00000EC0
IPR7                              00000EC1
LADR0                             00000000
LADR1                             00000001
LADR10                            00000002
LADR11                            00000003
LADR12                            00000004
LADR13                            00000005
LADR14                            00000006
LADR15                            00000007
LADR16                            00000000
LADR17                            00000001
LADR18                            00000002
LADR19                            00000003
LADR2                             00000002
LADR20                            00000004
LADR21                            00000005
LADR3                             00000003
LADR4                             00000004
LADR5                             00000005
LADR6                             00000006
LADR7                             00000007
LADR8                             00000000
LADR9                             00000001
LATA                              00000F83
LATA0                             00000000
LATA1                             00000001
LATA2                             00000002
LATA3                             00000003
LATA4                             00000004
LATA5                             00000005
LATA6                             00000006
LATA7                             00000007
LATB                              00000F84
LATB0                             00000000
LATB1                             00000001
LATB2                             00000002
LATB3                             00000003
LATB4                             00000004
LATB5                             00000005
LATB6                             00000006
LATB7                             00000007
LATC                              00000F85
LATC0                             00000000
LATC1                             00000001
LATC2                             00000002
LATC3                             00000003
MPASM 5.86              VUMETRE-LUMINEUX.ASM   1-13-2020  14:51:01         PAGE 63


SYMBOL TABLE
  LABEL                             VALUE 

LATC4                             00000004
LATC5                             00000005
LATC6                             00000006
LATC7                             00000007
LD                                00000006
LED_BLANCHE                       000000BE
LED_BLEUE                         000000A4
LED_CYAN                          00000126
LED_END                           00000140
LED_JAUNE                         000000D8
LED_NOIRE                         00000070
LED_ORANGE                        000000F2
LED_ROUGE                         0000008A
LED_VERTE                         00000056
LED_VIOLETTE                      0000010C
LED_WAIT                          0000015A
LFOEN                             00000004
LFOR                              00000004
LSAC0                             00000002
LSAC1                             00000003
LSBD0                             00000004
LSBD1                             00000005
MC1OUT                            00000000
MC2OUT                            00000001
MDBIT                             00000000
MDCARH                            00000F55
MDCARHPPS                         00000EB3
MDCARHPPS0                        00000000
MDCARHPPS1                        00000001
MDCARHPPS2                        00000002
MDCARHPPS3                        00000003
MDCARHPPS4                        00000004
MDCARL                            00000F54
MDCARLPPS                         00000EB2
MDCARLPPS0                        00000000
MDCARLPPS1                        00000001
MDCARLPPS2                        00000002
MDCARLPPS3                        00000003
MDCARLPPS4                        00000004
MDCHPOL                           00000005
MDCHS0                            00000000
MDCHS1                            00000001
MDCHS2                            00000002
MDCHSYNC                          00000004
MDCLPOL                           00000001
MDCLS0                            00000000
MDCLS1                            00000001
MDCLS2                            00000002
MDCLSYNC                          00000000
MDCON0                            00000F51
MDCON1                            00000F52
MDEN                              00000007
MDOPOL                            00000004
MPASM 5.86              VUMETRE-LUMINEUX.ASM   1-13-2020  14:51:01         PAGE 64


SYMBOL TABLE
  LABEL                             VALUE 

MDOUT                             00000005
MDSRC                             00000F53
MDSRCPPS                          00000EB4
MDSRCPPS0                         00000000
MDSRCPPS1                         00000001
MDSRCPPS2                         00000002
MDSRCPPS3                         00000003
MDSRCPPS4                         00000004
MDSRCS0                           00000000
MDSRCS1                           00000001
MDSRCS2                           00000002
MDSRCS3                           00000003
MEDIUM_BAS                        00000438
MEDIUM_HAUT                       000004A6
MFOEN                             00000005
MFOR                              00000005
MODE0                             00000000
MODE1                             00000001
MODE2                             00000002
MODE3                             00000003
MODE4                             00000004
MSK0                              00000000
MSK1                              00000001
MSK2                              00000002
MSK3                              00000003
MSK4                              00000004
MSK5                              00000005
MSK6                              00000006
MSK7                              00000007
MSSP1MD                           00000004
N                                 00000004
NCH0                              00000000
NCH1                              00000001
NCH2                              00000002
NDIV0                             00000000
NDIV1                             00000001
NDIV2                             00000002
NDIV3                             00000003
NOSC0                             00000004
NOSC1                             00000005
NOSC2                             00000006
NOSCR                             00000003
NOT_A                             00000005
NOT_ADDRESS                       00000005
NOT_BOR                           00000000
NOT_PD                            00000005
NOT_POR                           00000001
NOT_RI                            00000002
NOT_RMCLR                         00000003
NOT_RWDT                          00000004
NOT_SYNC                          00000002
NOT_T1SYNC                        00000002
NOT_T3SYNC                        00000002
MPASM 5.86              VUMETRE-LUMINEUX.ASM   1-13-2020  14:51:01         PAGE 65


SYMBOL TABLE
  LABEL                             VALUE 

NOT_T5SYNC                        00000002
NOT_TO                            00000006
NOT_W                             00000002
NOT_WDTWV                         00000005
NOT_WRITE                         00000002
NSS                               00000000
NVMADR                            00000F7E
NVMADR0                           00000000
NVMADR1                           00000001
NVMADR2                           00000002
NVMADR3                           00000003
NVMADR4                           00000004
NVMADR5                           00000005
NVMADR6                           00000006
NVMADR7                           00000007
NVMADRL                           00000F7E
NVMCON1                           00000F81
NVMCON2                           00000F82
NVMDAT                            00000F80
NVMDAT0                           00000000
NVMDAT1                           00000001
NVMDAT2                           00000002
NVMDAT3                           00000003
NVMDAT4                           00000004
NVMDAT5                           00000005
NVMDAT6                           00000006
NVMDAT7                           00000007
NVMIE                             00000005
NVMIF                             00000005
NVMIP                             00000005
NVMMD                             00000002
NVMREG0                           00000006
NVMREG1                           00000007
ODCA0                             00000000
ODCA1                             00000001
ODCA2                             00000002
ODCA3                             00000003
ODCA4                             00000004
ODCA5                             00000005
ODCA6                             00000006
ODCA7                             00000007
ODCB0                             00000000
ODCB1                             00000001
ODCB2                             00000002
ODCB3                             00000003
ODCB4                             00000004
ODCB5                             00000005
ODCB6                             00000006
ODCB7                             00000007
ODCC0                             00000000
ODCC1                             00000001
ODCC2                             00000002
ODCC3                             00000003
MPASM 5.86              VUMETRE-LUMINEUX.ASM   1-13-2020  14:51:01         PAGE 66


SYMBOL TABLE
  LABEL                             VALUE 

ODCC4                             00000004
ODCC5                             00000005
ODCC6                             00000006
ODCC7                             00000007
ODCONA                            00000F0F
ODCONB                            00000F17
ODCONC                            00000F1F
OE1                               00000005
OE2                               00000004
OERR                              00000001
ON_T1CON                          00000000
ON_T2CON                          00000007
ON_T3CON                          00000000
ON_T4CON                          00000007
ON_T5CON                          00000000
ON_T6CON                          00000007
OO                                0000077C
OPOL                              00000004
ORDY                              00000004
OSCCON1                           00000ED8
OSCCON2                           00000ED9
OSCCON3                           00000EDA
OSCEN                             00000EDC
OSCFIE                            00000007
OSCFIF                            00000007
OSCFIP                            00000007
OSCFRQ                            00000EDE
OSCSTAT                           00000EDB
OSCSTAT1                          00000EDB
OSCTUNE                           00000EDD
OUTPS0                            00000000
OUTPS1                            00000001
OUTPS2                            00000002
OUTPS3                            00000003
OUT_CCP1CON                       00000005
OUT_CCP2CON                       00000005
OUT_CM1CON0                       00000006
OUT_CM2CON0                       00000006
OUT_HLVDCON0                      00000005
OUT_MDCON0                        00000005
OUT_PWM3CON                       00000005
OUT_PWM4CON                       00000005
OUT_ZCDCON                        00000005
OV                                00000003
OVRA                              00000004
OVRB                              00000005
OVRC                              00000006
OVRD                              00000007
Ol                                0000078A
P                                 00000004
P3TSEL0                           00000004
P3TSEL1                           00000005
P4TSEL0                           00000006
MPASM 5.86              VUMETRE-LUMINEUX.ASM   1-13-2020  14:51:01         PAGE 67


SYMBOL TABLE
  LABEL                             VALUE 

P4TSEL1                           00000007
PC                                00000FF9
PCH0                              00000000
PCH1                              00000001
PCH2                              00000002
PCIE                              00000006
PCL                               00000FF9
PCLATH                            00000FFA
PCLATU                            00000FFB
PCON0                             00000FD7
PD                                00000005
PEIE                              00000006
PEIE_GIEL                         00000006
PEN                               00000002
PIE0                              00000EC2
PIE1                              00000EC3
PIE2                              00000EC4
PIE3                              00000EC5
PIE4                              00000EC6
PIE5                              00000EC7
PIE6                              00000EC8
PIE7                              00000EC9
PIR0                              00000ECA
PIR1                              00000ECB
PIR2                              00000ECC
PIR3                              00000ECD
PIR4                              00000ECE
PIR5                              00000ECF
PIR6                              00000ED0
PIR7                              00000ED1
PLEN0                             00000000
PLEN1                             00000001
PLEN2                             00000002
PLEN3                             00000003
PLLR                              00000000
PLUSW0                            00000FEB
PLUSW1                            00000FE3
PLUSW2                            00000FDB
PMD0                              00000EE1
PMD1                              00000EE2
PMD2                              00000EE3
PMD3                              00000EE4
PMD4                              00000EE5
PMD5                              00000EE6
POCE_BLO                          0000080E
POL                               00000004
POLA                              00000000
POLB                              00000001
POLC                              00000002
POLD                              00000003
POR                               00000001
PORT                              00000003
PORTA                             00000F8D
MPASM 5.86              VUMETRE-LUMINEUX.ASM   1-13-2020  14:51:01         PAGE 68


SYMBOL TABLE
  LABEL                             VALUE 

PORTB                             00000F8E
PORTC                             00000F8F
PORTE                             00000F91
POSTDEC0                          00000FED
POSTDEC1                          00000FE5
POSTDEC2                          00000FDD
POSTINC0                          00000FEE
POSTINC1                          00000FE6
POSTINC2                          00000FDE
PPSLOCK                           00000EA0
PPSLOCKED                         00000000
PR0                               00000FD4
PR1                               00000FD0
PR2                               00000FBC
PR3                               00000FCA
PR4                               00000FB6
PR5                               00000FC4
PR6                               00000FB0
PREINC0                           00000FEC
PREINC1                           00000FE4
PREINC2                           00000FDC
PROD                              00000FF3
PRODH                             00000FF4
PRODL                             00000FF3
PSCNT0                            00000000
PSCNT1                            00000001
PSCNT10                           00000002
PSCNT11                           00000003
PSCNT12                           00000004
PSCNT13                           00000005
PSCNT14                           00000006
PSCNT15                           00000007
PSCNT16                           00000000
PSCNT17                           00000001
PSCNT2                            00000002
PSCNT3                            00000003
PSCNT4                            00000004
PSCNT5                            00000005
PSCNT6                            00000006
PSCNT7                            00000007
PSCNT8                            00000000
PSCNT9                            00000001
PSS0                              00000002
PSS1                              00000003
PSYNC                             00000007
PWM3CON                           00000FA5
PWM3DC                            00000FA3
PWM3DC0                           00000006
PWM3DC1                           00000007
PWM3DC2                           00000000
PWM3DC3                           00000001
PWM3DC4                           00000002
PWM3DC5                           00000003
MPASM 5.86              VUMETRE-LUMINEUX.ASM   1-13-2020  14:51:01         PAGE 69


SYMBOL TABLE
  LABEL                             VALUE 

PWM3DC6                           00000004
PWM3DC7                           00000005
PWM3DC8                           00000006
PWM3DC9                           00000007
PWM3DCH                           00000FA4
PWM3DCL                           00000FA3
PWM3EN                            00000007
PWM3MD                            00000002
PWM3OUT                           00000005
PWM3POL                           00000004
PWM4CON                           00000FA2
PWM4DC                            00000FA0
PWM4DC0                           00000006
PWM4DC1                           00000007
PWM4DC2                           00000000
PWM4DC3                           00000001
PWM4DC4                           00000002
PWM4DC5                           00000003
PWM4DC6                           00000004
PWM4DC7                           00000005
PWM4DC8                           00000006
PWM4DC9                           00000007
PWM4DCH                           00000FA1
PWM4DCL                           00000FA0
PWM4EN                            00000007
PWM4MD                            00000003
PWM4OUT                           00000005
PWM4POL                           00000004
PWMPW0                            00000006
PWMPW1                            00000007
PWMPW2                            00000000
PWMPW3                            00000001
PWMPW4                            00000002
PWMPW5                            00000003
PWMPW6                            00000004
PWMPW7                            00000005
PWMPW8                            00000006
PWMPW9                            00000007
QUATRE_DE_PUISSANCE               00000280
RA0                               00000000
RA0PPS                            00000EE7
RA0PPS0                           00000000
RA0PPS1                           00000001
RA0PPS2                           00000002
RA0PPS3                           00000003
RA0PPS4                           00000004
RA1                               00000001
RA1PPS                            00000EE8
RA1PPS0                           00000000
RA1PPS1                           00000001
RA1PPS2                           00000002
RA1PPS3                           00000003
RA1PPS4                           00000004
MPASM 5.86              VUMETRE-LUMINEUX.ASM   1-13-2020  14:51:01         PAGE 70


SYMBOL TABLE
  LABEL                             VALUE 

RA2                               00000002
RA2PPS                            00000EE9
RA2PPS0                           00000000
RA2PPS1                           00000001
RA2PPS2                           00000002
RA2PPS3                           00000003
RA2PPS4                           00000004
RA3                               00000003
RA3PPS                            00000EEA
RA3PPS0                           00000000
RA3PPS1                           00000001
RA3PPS2                           00000002
RA3PPS3                           00000003
RA3PPS4                           00000004
RA4                               00000004
RA4PPS                            00000EEB
RA4PPS0                           00000000
RA4PPS1                           00000001
RA4PPS2                           00000002
RA4PPS3                           00000003
RA4PPS4                           00000004
RA5                               00000005
RA5PPS                            00000EEC
RA5PPS0                           00000000
RA5PPS1                           00000001
RA5PPS2                           00000002
RA5PPS3                           00000003
RA5PPS4                           00000004
RA6                               00000006
RA6PPS                            00000EED
RA6PPS0                           00000000
RA6PPS1                           00000001
RA6PPS2                           00000002
RA6PPS3                           00000003
RA6PPS4                           00000004
RA7                               00000007
RA7PPS                            00000EEE
RA7PPS0                           00000000
RA7PPS1                           00000001
RA7PPS2                           00000002
RA7PPS3                           00000003
RA7PPS4                           00000004
RB0                               00000000
RB0PPS                            00000EEF
RB0PPS0                           00000000
RB0PPS1                           00000001
RB0PPS2                           00000002
RB0PPS3                           00000003
RB0PPS4                           00000004
RB1                               00000001
RB1PPS                            00000EF0
RB1PPS0                           00000000
RB1PPS1                           00000001
MPASM 5.86              VUMETRE-LUMINEUX.ASM   1-13-2020  14:51:01         PAGE 71


SYMBOL TABLE
  LABEL                             VALUE 

RB1PPS2                           00000002
RB1PPS3                           00000003
RB1PPS4                           00000004
RB2                               00000002
RB2PPS                            00000EF1
RB2PPS0                           00000000
RB2PPS1                           00000001
RB2PPS2                           00000002
RB2PPS3                           00000003
RB2PPS4                           00000004
RB3                               00000003
RB3PPS                            00000EF2
RB3PPS0                           00000000
RB3PPS1                           00000001
RB3PPS2                           00000002
RB3PPS3                           00000003
RB3PPS4                           00000004
RB4                               00000004
RB4PPS                            00000EF3
RB4PPS0                           00000000
RB4PPS1                           00000001
RB4PPS2                           00000002
RB4PPS3                           00000003
RB4PPS4                           00000004
RB5                               00000005
RB5PPS                            00000EF4
RB5PPS0                           00000000
RB5PPS1                           00000001
RB5PPS2                           00000002
RB5PPS3                           00000003
RB5PPS4                           00000004
RB6                               00000006
RB6PPS                            00000EF5
RB6PPS0                           00000000
RB6PPS1                           00000001
RB6PPS2                           00000002
RB6PPS3                           00000003
RB6PPS4                           00000004
RB7                               00000007
RB7PPS                            00000EF6
RB7PPS0                           00000000
RB7PPS1                           00000001
RB7PPS2                           00000002
RB7PPS3                           00000003
RB7PPS4                           00000004
RC0                               00000000
RC0PPS                            00000EF7
RC0PPS0                           00000000
RC0PPS1                           00000001
RC0PPS2                           00000002
RC0PPS3                           00000003
RC0PPS4                           00000004
RC1                               00000001
MPASM 5.86              VUMETRE-LUMINEUX.ASM   1-13-2020  14:51:01         PAGE 72


SYMBOL TABLE
  LABEL                             VALUE 

RC1IE                             00000005
RC1IF                             00000005
RC1PPS                            00000EF8
RC1PPS0                           00000000
RC1PPS1                           00000001
RC1PPS2                           00000002
RC1PPS3                           00000003
RC1PPS4                           00000004
RC1REG                            00000F99
RC1STA                            00000F9D
RC2                               00000002
RC2PPS                            00000EF9
RC2PPS0                           00000000
RC2PPS1                           00000001
RC2PPS2                           00000002
RC2PPS3                           00000003
RC2PPS4                           00000004
RC3                               00000003
RC3PPS                            00000EFA
RC3PPS0                           00000000
RC3PPS1                           00000001
RC3PPS2                           00000002
RC3PPS3                           00000003
RC3PPS4                           00000004
RC4                               00000004
RC4PPS                            00000EFB
RC4PPS0                           00000000
RC4PPS1                           00000001
RC4PPS2                           00000002
RC4PPS3                           00000003
RC4PPS4                           00000004
RC5                               00000005
RC5PPS                            00000EFC
RC5PPS0                           00000000
RC5PPS1                           00000001
RC5PPS2                           00000002
RC5PPS3                           00000003
RC5PPS4                           00000004
RC6                               00000006
RC6PPS                            00000EFD
RC6PPS0                           00000000
RC6PPS1                           00000001
RC6PPS2                           00000002
RC6PPS3                           00000003
RC6PPS4                           00000004
RC7                               00000007
RC7PPS                            00000EFE
RC7PPS0                           00000000
RC7PPS1                           00000001
RC7PPS2                           00000002
RC7PPS3                           00000003
RC7PPS4                           00000004
RCEN                              00000003
MPASM 5.86              VUMETRE-LUMINEUX.ASM   1-13-2020  14:51:01         PAGE 73


SYMBOL TABLE
  LABEL                             VALUE 

RCIDL                             00000006
RCIE                              00000005
RCIF                              00000005
RCIP                              00000005
RCREG                             00000F99
RCREG1                            00000F99
RCSTA                             00000F9D
RCSTA1                            00000F9D
RD                                00000000
RD16                              00000001
RDY_FVRCON                        00000006
RDY_HLVDCON0                      00000004
RE3                               00000003
READ_WRITE                        00000002
REN                               00000006
RESEAUX_SOCIAUX                   00000C16
RESULTHIGH                        0000000A
RESULTLOW                         0000000B
RI                                00000002
RMCLR                             00000003
ROI                               00000005
RSEL0                             00000000
RSEL1                             00000001
RSEL2                             00000002
RSEL3                             00000003
RSEN                              00000001
RWDT                              00000004
RX1PPS                            00000EB5
RX9                               00000006
RX9D                              00000000
RXPPS                             00000EB5
RXPPS0                            00000000
RXPPS1                            00000001
RXPPS2                            00000002
RXPPS3                            00000003
RXPPS4                            00000004
R_NOT_W                           00000002
R_W                               00000002
Ruban_LED                         0000002C
S                                 00000003
SBCDE                             00000002
SBOREN                            00000007
SCANBUSY                          00000005
SCANCON0                          00000F4F
SCANEN                            00000007
SCANGO                            00000006
SCANHADR                          00000F4C
SCANHADR0                         00000000
SCANHADR1                         00000001
SCANHADR10                        00000002
SCANHADR11                        00000003
SCANHADR12                        00000004
SCANHADR13                        00000005
MPASM 5.86              VUMETRE-LUMINEUX.ASM   1-13-2020  14:51:01         PAGE 74


SYMBOL TABLE
  LABEL                             VALUE 

SCANHADR14                        00000006
SCANHADR15                        00000007
SCANHADR16                        00000000
SCANHADR17                        00000001
SCANHADR18                        00000002
SCANHADR19                        00000003
SCANHADR2                         00000002
SCANHADR20                        00000004
SCANHADR21                        00000005
SCANHADR3                         00000003
SCANHADR4                         00000004
SCANHADR5                         00000005
SCANHADR6                         00000006
SCANHADR7                         00000007
SCANHADR8                         00000000
SCANHADR9                         00000001
SCANHADRH                         00000F4D
SCANHADRL                         00000F4C
SCANHADRU                         00000F4E
SCANIE                            00000007
SCANIF                            00000007
SCANINTM                          00000003
SCANINVALID                       00000004
SCANIP                            00000007
SCANLADR                          00000F49
SCANLADR0                         00000000
SCANLADR1                         00000001
SCANLADR10                        00000002
SCANLADR11                        00000003
SCANLADR12                        00000004
SCANLADR13                        00000005
SCANLADR14                        00000006
SCANLADR15                        00000007
SCANLADR16                        00000000
SCANLADR17                        00000001
SCANLADR18                        00000002
SCANLADR19                        00000003
SCANLADR2                         00000002
SCANLADR20                        00000004
SCANLADR21                        00000005
SCANLADR3                         00000003
SCANLADR4                         00000004
SCANLADR5                         00000005
SCANLADR6                         00000006
SCANLADR7                         00000007
SCANLADR8                         00000000
SCANLADR9                         00000001
SCANLADRH                         00000F4A
SCANLADRL                         00000F49
SCANLADRU                         00000F4B
SCANMD                            00000003
SCANMODE0                         00000000
SCANMODE1                         00000001
MPASM 5.86              VUMETRE-LUMINEUX.ASM   1-13-2020  14:51:01         PAGE 75


SYMBOL TABLE
  LABEL                             VALUE 

SCANTRIG                          00000F50
SCANTSEL0                         00000000
SCANTSEL1                         00000001
SCANTSEL2                         00000002
SCANTSEL3                         00000003
SCIE                              00000005
SCKP                              00000004
SDAHT                             00000003
SEL0                              00000000
SEL1                              00000001
SEL2                              00000002
SEL3                              00000003
SENDB                             00000003
SEN_SSP1CON2                      00000000
SEN_WDTCON0                       00000000
SEN_ZCDCON                        00000007
SEPT_DE_PUISSANCE                 00000346
SHFT0                             00000000
SHFT1                             00000001
SHFT10                            00000002
SHFT11                            00000003
SHFT12                            00000004
SHFT13                            00000005
SHFT14                            00000006
SHFT15                            00000007
SHFT2                             00000002
SHFT3                             00000003
SHFT4                             00000004
SHFT5                             00000005
SHFT6                             00000006
SHFT7                             00000007
SHFT8                             00000000
SHFT9                             00000001
SHIFTM                            00000001
SHUTDOWN                          00000007
SIX_DE_PUISSANCE                  00000304
SLRA0                             00000000
SLRA1                             00000001
SLRA2                             00000002
SLRA3                             00000003
SLRA4                             00000004
SLRA5                             00000005
SLRA6                             00000006
SLRA7                             00000007
SLRB0                             00000000
SLRB1                             00000001
SLRB2                             00000002
SLRB3                             00000003
SLRB4                             00000004
SLRB5                             00000005
SLRB6                             00000006
SLRB7                             00000007
SLRC0                             00000000
MPASM 5.86              VUMETRE-LUMINEUX.ASM   1-13-2020  14:51:01         PAGE 76


SYMBOL TABLE
  LABEL                             VALUE 

SLRC1                             00000001
SLRC2                             00000002
SLRC3                             00000003
SLRC4                             00000004
SLRC5                             00000005
SLRC6                             00000006
SLRC7                             00000007
SLRCONA                           00000F0E
SLRCONB                           00000F16
SLRCONC                           00000F1E
SMILEY                            00001252
SMP                               00000007
SOR                               00000003
SOSCEN                            00000003
SOSCPWR                           00000006
SP0                               00000000
SP1                               00000001
SP1BRG                            00000F9B
SP1BRGH                           00000F9C
SP1BRGL                           00000F9B
SP2                               00000002
SP3                               00000003
SP4                               00000004
SP5                               00000005
SPBRG                             00000F9B
SPBRG1                            00000F9B
SPBRGH                            00000F9C
SPBRGH1                           00000F9C
SPBRGL                            00000F9B
SPEN                              00000007
SRCS0                             00000000
SRCS1                             00000001
SRCS2                             00000002
SRCS3                             00000003
SREN                              00000005
SSP1ADD                           00000F93
SSP1BUF                           00000F92
SSP1CLKPPS                        00000EB7
SSP1CLKPPS0                       00000000
SSP1CLKPPS1                       00000001
SSP1CLKPPS2                       00000002
SSP1CLKPPS3                       00000003
SSP1CLKPPS4                       00000004
SSP1CON1                          00000F96
SSP1CON2                          00000F97
SSP1CON3                          00000F98
SSP1DATPPS                        00000EB8
SSP1DATPPS0                       00000000
SSP1DATPPS1                       00000001
SSP1DATPPS2                       00000002
SSP1DATPPS3                       00000003
SSP1DATPPS4                       00000004
SSP1IE                            00000000
MPASM 5.86              VUMETRE-LUMINEUX.ASM   1-13-2020  14:51:01         PAGE 77


SYMBOL TABLE
  LABEL                             VALUE 

SSP1IF                            00000000
SSP1IP                            00000000
SSP1MSK                           00000F94
SSP1SSPPS                         00000EB9
SSP1SSPPS0                        00000000
SSP1SSPPS1                        00000001
SSP1SSPPS2                        00000002
SSP1SSPPS3                        00000003
SSP1SSPPS4                        00000004
SSP1STAT                          00000F95
SSPCLKPPS                         00000EB7
SSPCLKPPS0                        00000000
SSPCLKPPS1                        00000001
SSPCLKPPS2                        00000002
SSPCLKPPS3                        00000003
SSPCLKPPS4                        00000004
SSPDATPPS                         00000EB8
SSPDATPPS0                        00000000
SSPDATPPS1                        00000001
SSPDATPPS2                        00000002
SSPDATPPS3                        00000003
SSPDATPPS4                        00000004
SSPEN                             00000005
SSPIE                             00000000
SSPIF                             00000000
SSPIP                             00000000
SSPM0                             00000000
SSPM1                             00000001
SSPM2                             00000002
SSPM3                             00000003
SSPOV                             00000006
SSPSSPPS                          00000EB9
SSPSSPPS0                         00000000
SSPSSPPS1                         00000001
SSPSSPPS2                         00000002
SSPSSPPS3                         00000003
SSPSSPPS4                         00000004
STARTPRGM                         00000000
STATE                             00000002
STATUS                            00000FD8
STKOVF                            00000007
STKPTR                            00000FFC
STKPTR0                           00000000
STKPTR1                           00000001
STKPTR2                           00000002
STKPTR3                           00000003
STKPTR4                           00000004
STKPTR5                           00000005
STKUNF                            00000006
STRA                              00000000
STRB                              00000001
STRC                              00000002
STRD                              00000003
MPASM 5.86              VUMETRE-LUMINEUX.ASM   1-13-2020  14:51:01         PAGE 78


SYMBOL TABLE
  LABEL                             VALUE 

SWDTEN                            00000000
SYNC_CM1CON0                      00000000
SYNC_CM2CON0                      00000000
SYNC_TX1STA                       00000004
SYNC_TXSTA                        00000004
SYNC_TXSTA1                       00000004
SYSCMD                            00000007
T016BIT                           00000004
T0ASYNC                           00000004
T0CKIPPS                          00000EA4
T0CKIPPS0                         00000000
T0CKIPPS1                         00000001
T0CKIPPS2                         00000002
T0CKIPPS3                         00000003
T0CKPS0                           00000000
T0CKPS1                           00000001
T0CKPS2                           00000002
T0CKPS3                           00000003
T0CON0                            00000FD5
T0CON1                            00000FD6
T0CS0                             00000005
T0CS1                             00000006
T0CS2                             00000007
T0EN                              00000007
T0OUT                             00000005
T0OUTPS0                          00000000
T0OUTPS1                          00000001
T0OUTPS2                          00000002
T0OUTPS3                          00000003
T0PR0                             00000000
T0PR1                             00000001
T0PR2                             00000002
T0PR3                             00000003
T0PR4                             00000004
T0PR5                             00000005
T0PR6                             00000006
T0PR7                             00000007
T0PS0                             00000000
T0PS1                             00000001
T0PS2                             00000002
T0PS3                             00000003
T1CKIPPS                          00000EA5
T1CKIPPS0                         00000000
T1CKIPPS1                         00000001
T1CKIPPS2                         00000002
T1CKIPPS3                         00000003
T1CKIPPS4                         00000004
T1CKPS0                           00000004
T1CKPS1                           00000005
T1CLK                             00000FD2
T1CON                             00000FCF
T1CS0                             00000000
T1CS1                             00000001
MPASM 5.86              VUMETRE-LUMINEUX.ASM   1-13-2020  14:51:01         PAGE 79


SYMBOL TABLE
  LABEL                             VALUE 

T1CS2                             00000002
T1CS3                             00000003
T1GATE                            00000FD1
T1GCON                            00000FD0
T1GE                              00000007
T1GGO                             00000003
T1GGO_NOT_DONE                    00000003
T1GPOL                            00000006
T1GPPS                            00000EA6
T1GPPS0                           00000000
T1GPPS1                           00000001
T1GPPS2                           00000002
T1GPPS3                           00000003
T1GPPS4                           00000004
T1GSPM                            00000004
T1GSS0                            00000000
T1GSS1                            00000001
T1GSS2                            00000002
T1GSS3                            00000003
T1GTM                             00000005
T1GVAL                            00000002
T1RD16                            00000001
T2CKPOL                           00000006
T2CKPS0                           00000004
T2CKPS1                           00000005
T2CKPS2                           00000006
T2CKSYNC                          00000005
T2CLK                             00000FBF
T2CLKCON                          00000FBF
T2CON                             00000FBD
T2CS0                             00000000
T2CS1                             00000001
T2CS2                             00000002
T2CS3                             00000003
T2HLT                             00000FBE
T2INPPS                           00000EAB
T2INPPS0                          00000000
T2INPPS1                          00000001
T2INPPS2                          00000002
T2INPPS3                          00000003
T2INPPS4                          00000004
T2MODE0                           00000000
T2MODE1                           00000001
T2MODE2                           00000002
T2MODE3                           00000003
T2MODE4                           00000004
T2ON                              00000007
T2OUTPS0                          00000000
T2OUTPS1                          00000001
T2OUTPS2                          00000002
T2OUTPS3                          00000003
T2PR                              00000FBC
T2PSYNC                           00000007
MPASM 5.86              VUMETRE-LUMINEUX.ASM   1-13-2020  14:51:01         PAGE 80


SYMBOL TABLE
  LABEL                             VALUE 

T2RSEL0                           00000000
T2RSEL1                           00000001
T2RSEL2                           00000002
T2RSEL3                           00000003
T2RST                             00000FC0
T2TMR                             00000FBB
T3CKIPPS                          00000EA7
T3CKIPPS0                         00000000
T3CKIPPS1                         00000001
T3CKIPPS2                         00000002
T3CKIPPS3                         00000003
T3CKIPPS4                         00000004
T3CKPS0                           00000004
T3CKPS1                           00000005
T3CLK                             00000FCC
T3CON                             00000FC9
T3CS0                             00000000
T3CS1                             00000001
T3CS2                             00000002
T3CS3                             00000003
T3GATE                            00000FCB
T3GCON                            00000FCA
T3GE                              00000007
T3GGO                             00000003
T3GGO_NOT_DONE                    00000003
T3GPOL                            00000006
T3GPPS                            00000EA8
T3GPPS0                           00000000
T3GPPS1                           00000001
T3GPPS2                           00000002
T3GPPS3                           00000003
T3GPPS4                           00000004
T3GSPM                            00000004
T3GSS0                            00000000
T3GSS1                            00000001
T3GSS2                            00000002
T3GSS3                            00000003
T3GTM                             00000005
T3GVAL                            00000002
T3RD16                            00000001
T4CKPOL                           00000006
T4CKPS0                           00000004
T4CKPS1                           00000005
T4CKPS2                           00000006
T4CKSYNC                          00000005
T4CLK                             00000FB9
T4CLKCON                          00000FB9
T4CON                             00000FB7
T4CS0                             00000000
T4CS1                             00000001
T4CS2                             00000002
T4CS3                             00000003
T4HLT                             00000FB8
MPASM 5.86              VUMETRE-LUMINEUX.ASM   1-13-2020  14:51:01         PAGE 81


SYMBOL TABLE
  LABEL                             VALUE 

T4INPPS                           00000EAC
T4INPPS0                          00000000
T4INPPS1                          00000001
T4INPPS2                          00000002
T4INPPS3                          00000003
T4INPPS4                          00000004
T4MODE0                           00000000
T4MODE1                           00000001
T4MODE2                           00000002
T4MODE3                           00000003
T4MODE4                           00000004
T4ON                              00000007
T4OUTPS0                          00000000
T4OUTPS1                          00000001
T4OUTPS2                          00000002
T4OUTPS3                          00000003
T4PR                              00000FB6
T4PSYNC                           00000007
T4RSEL0                           00000000
T4RSEL1                           00000001
T4RSEL2                           00000002
T4RSEL3                           00000003
T4RST                             00000FBA
T4TMR                             00000FB5
T5CKIPPS                          00000EA9
T5CKIPPS0                         00000000
T5CKIPPS1                         00000001
T5CKIPPS2                         00000002
T5CKIPPS3                         00000003
T5CKIPPS4                         00000004
T5CKPS0                           00000004
T5CKPS1                           00000005
T5CLK                             00000FC6
T5CON                             00000FC3
T5CS0                             00000000
T5CS1                             00000001
T5CS2                             00000002
T5CS3                             00000003
T5GATE                            00000FC5
T5GCON                            00000FC4
T5GE                              00000007
T5GGO                             00000003
T5GGO_NOT_DONE                    00000003
T5GPOL                            00000006
T5GPPS                            00000EAA
T5GPPS0                           00000000
T5GPPS1                           00000001
T5GPPS2                           00000002
T5GPPS3                           00000003
T5GPPS4                           00000004
T5GSPM                            00000004
T5GSS0                            00000000
T5GSS1                            00000001
MPASM 5.86              VUMETRE-LUMINEUX.ASM   1-13-2020  14:51:01         PAGE 82


SYMBOL TABLE
  LABEL                             VALUE 

T5GSS2                            00000002
T5GSS3                            00000003
T5GTM                             00000005
T5GVAL                            00000002
T5RD16                            00000001
T6CKPOL                           00000006
T6CKPS0                           00000004
T6CKPS1                           00000005
T6CKPS2                           00000006
T6CKSYNC                          00000005
T6CLK                             00000FB3
T6CLKCON                          00000FB3
T6CON                             00000FB1
T6CS0                             00000000
T6CS1                             00000001
T6CS2                             00000002
T6CS3                             00000003
T6HLT                             00000FB2
T6INPPS                           00000EAD
T6INPPS0                          00000000
T6INPPS1                          00000001
T6INPPS2                          00000002
T6INPPS3                          00000003
T6INPPS4                          00000004
T6MODE0                           00000000
T6MODE1                           00000001
T6MODE2                           00000002
T6MODE3                           00000003
T6MODE4                           00000004
T6ON                              00000007
T6OUTPS0                          00000000
T6OUTPS1                          00000001
T6OUTPS2                          00000002
T6OUTPS3                          00000003
T6PR                              00000FB0
T6PSYNC                           00000007
T6RSEL0                           00000000
T6RSEL1                           00000001
T6RSEL2                           00000002
T6RSEL3                           00000003
T6RST                             00000FB4
T6TMR                             00000FAF
TABLAT                            00000FF5
TBLPTR                            00000FF6
TBLPTRH                           00000FF7
TBLPTRL                           00000FF6
TBLPTRU                           00000FF8
TEST_VOLUME                       00000582
TMR0                              00000FD3
TMR0H                             00000FD4
TMR0H0                            00000000
TMR0H1                            00000001
TMR0H2                            00000002
MPASM 5.86              VUMETRE-LUMINEUX.ASM   1-13-2020  14:51:01         PAGE 83


SYMBOL TABLE
  LABEL                             VALUE 

TMR0H3                            00000003
TMR0H4                            00000004
TMR0H5                            00000005
TMR0H6                            00000006
TMR0H7                            00000007
TMR0IE                            00000005
TMR0IF                            00000005
TMR0IP                            00000005
TMR0L                             00000FD3
TMR0L0                            00000000
TMR0L1                            00000001
TMR0L2                            00000002
TMR0L3                            00000003
TMR0L4                            00000004
TMR0L5                            00000005
TMR0L6                            00000006
TMR0L7                            00000007
TMR0MD                            00000000
TMR1                              00000FCD
TMR10                             00000000
TMR11                             00000001
TMR110                            00000002
TMR111                            00000003
TMR112                            00000004
TMR113                            00000005
TMR114                            00000006
TMR115                            00000007
TMR12                             00000002
TMR13                             00000003
TMR14                             00000004
TMR15                             00000005
TMR16                             00000006
TMR17                             00000007
TMR18                             00000000
TMR19                             00000001
TMR1CLK                           00000FD2
TMR1GATE                          00000FD1
TMR1GIE                           00000000
TMR1GIF                           00000000
TMR1GIP                           00000000
TMR1H                             00000FCE
TMR1H0                            00000000
TMR1H1                            00000001
TMR1H2                            00000002
TMR1H3                            00000003
TMR1H4                            00000004
TMR1H5                            00000005
TMR1H6                            00000006
TMR1H7                            00000007
TMR1IE                            00000000
TMR1IF                            00000000
TMR1IP                            00000000
TMR1L                             00000FCD
MPASM 5.86              VUMETRE-LUMINEUX.ASM   1-13-2020  14:51:01         PAGE 84


SYMBOL TABLE
  LABEL                             VALUE 

TMR1L0                            00000000
TMR1L1                            00000001
TMR1L2                            00000002
TMR1L3                            00000003
TMR1L4                            00000004
TMR1L5                            00000005
TMR1L6                            00000006
TMR1L7                            00000007
TMR1MD                            00000001
TMR1ON                            00000000
TMR2                              00000FBB
TMR2IE                            00000001
TMR2IF                            00000001
TMR2IP                            00000001
TMR2MD                            00000002
TMR2ON                            00000007
TMR3                              00000FC7
TMR30                             00000000
TMR31                             00000001
TMR310                            00000002
TMR311                            00000003
TMR312                            00000004
TMR313                            00000005
TMR314                            00000006
TMR315                            00000007
TMR32                             00000002
TMR33                             00000003
TMR34                             00000004
TMR35                             00000005
TMR36                             00000006
TMR37                             00000007
TMR38                             00000000
TMR39                             00000001
TMR3CLK                           00000FCC
TMR3GATE                          00000FCB
TMR3GIE                           00000001
TMR3GIF                           00000001
TMR3GIP                           00000001
TMR3H                             00000FC8
TMR3H0                            00000000
TMR3H1                            00000001
TMR3H2                            00000002
TMR3H3                            00000003
TMR3H4                            00000004
TMR3H5                            00000005
TMR3H6                            00000006
TMR3H7                            00000007
TMR3IE                            00000002
TMR3IF                            00000002
TMR3IP                            00000002
TMR3L                             00000FC7
TMR3L0                            00000000
TMR3L1                            00000001
MPASM 5.86              VUMETRE-LUMINEUX.ASM   1-13-2020  14:51:01         PAGE 85


SYMBOL TABLE
  LABEL                             VALUE 

TMR3L2                            00000002
TMR3L3                            00000003
TMR3L4                            00000004
TMR3L5                            00000005
TMR3L6                            00000006
TMR3L7                            00000007
TMR3MD                            00000003
TMR3ON                            00000000
TMR4                              00000FB5
TMR4IE                            00000003
TMR4IF                            00000003
TMR4IP                            00000003
TMR4MD                            00000004
TMR4ON                            00000007
TMR5                              00000FC1
TMR50                             00000000
TMR51                             00000001
TMR510                            00000002
TMR511                            00000003
TMR512                            00000004
TMR513                            00000005
TMR514                            00000006
TMR515                            00000007
TMR52                             00000002
TMR53                             00000003
TMR54                             00000004
TMR55                             00000005
TMR56                             00000006
TMR57                             00000007
TMR58                             00000000
TMR59                             00000001
TMR5CLK                           00000FC6
TMR5GATE                          00000FC5
TMR5GIE                           00000002
TMR5GIF                           00000002
TMR5GIP                           00000002
TMR5H                             00000FC2
TMR5H0                            00000000
TMR5H1                            00000001
TMR5H2                            00000002
TMR5H3                            00000003
TMR5H4                            00000004
TMR5H5                            00000005
TMR5H6                            00000006
TMR5H7                            00000007
TMR5IE                            00000004
TMR5IF                            00000004
TMR5IP                            00000004
TMR5L                             00000FC1
TMR5L0                            00000000
TMR5L1                            00000001
TMR5L2                            00000002
TMR5L3                            00000003
MPASM 5.86              VUMETRE-LUMINEUX.ASM   1-13-2020  14:51:01         PAGE 86


SYMBOL TABLE
  LABEL                             VALUE 

TMR5L4                            00000004
TMR5L5                            00000005
TMR5L6                            00000006
TMR5L7                            00000007
TMR5MD                            00000005
TMR5ON                            00000000
TMR6                              00000FAF
TMR6IE                            00000005
TMR6IF                            00000005
TMR6IP                            00000005
TMR6MD                            00000006
TMR6ON                            00000007
TO                                00000006
TOS                               00000FFD
TOSH                              00000FFE
TOSL                              00000FFD
TOSU                              00000FFF
TRISA                             00000F88
TRISA0                            00000000
TRISA1                            00000001
TRISA2                            00000002
TRISA3                            00000003
TRISA4                            00000004
TRISA5                            00000005
TRISA6                            00000006
TRISA7                            00000007
TRISB                             00000F89
TRISB0                            00000000
TRISB1                            00000001
TRISB2                            00000002
TRISB3                            00000003
TRISB4                            00000004
TRISB5                            00000005
TRISB6                            00000006
TRISB7                            00000007
TRISC                             00000F8A
TRISC0                            00000000
TRISC1                            00000001
TRISC2                            00000002
TRISC3                            00000003
TRISC4                            00000004
TRISC5                            00000005
TRISC6                            00000006
TRISC7                            00000007
TRMT                              00000001
TROIS_DE_PUISSANCE                0000023E
TSEL0                             00000000
TSEL1                             00000001
TSEL2                             00000002
TSEL3                             00000003
TSEN                              00000005
TSRNG                             00000004
TUN0                              00000000
MPASM 5.86              VUMETRE-LUMINEUX.ASM   1-13-2020  14:51:01         PAGE 87


SYMBOL TABLE
  LABEL                             VALUE 

TUN1                              00000001
TUN2                              00000002
TUN3                              00000003
TUN4                              00000004
TUN5                              00000005
TWEETER                           00000B14
TX1IE                             00000004
TX1IF                             00000004
TX1PPS                            00000EB6
TX1REG                            00000F9A
TX1STA                            00000F9E
TX9                               00000006
TX9D                              00000000
TXEN                              00000005
TXIE                              00000004
TXIF                              00000004
TXIP                              00000004
TXPPS                             00000EB6
TXPPS0                            00000000
TXPPS1                            00000001
TXPPS2                            00000002
TXPPS3                            00000003
TXPPS4                            00000004
TXREG                             00000F9A
TXREG1                            00000F9A
TXSTA                             00000F9E
TXSTA1                            00000F9E
UA                                00000001
UART1MD                           00000006
UN                                00000010
UN_DE_PUISSANCE                   000001BA
VREGCON                           00000EDF
VREGPM0                           00000000
VREGPM1                           00000001
W                                 00000000
WCOL                              00000007
WDTCON0                           00000ED2
WDTCON1                           00000ED3
WDTCS0                            00000004
WDTCS1                            00000005
WDTCS2                            00000006
WDTPS0                            00000001
WDTPS1                            00000002
WDTPS2                            00000003
WDTPS3                            00000004
WDTPS4                            00000005
WDTPSCNT0                         00000000
WDTPSCNT1                         00000001
WDTPSCNT10                        00000002
WDTPSCNT11                        00000003
WDTPSCNT12                        00000004
WDTPSCNT13                        00000005
WDTPSCNT14                        00000006
MPASM 5.86              VUMETRE-LUMINEUX.ASM   1-13-2020  14:51:01         PAGE 88


SYMBOL TABLE
  LABEL                             VALUE 

WDTPSCNT15                        00000007
WDTPSCNT16                        00000000
WDTPSCNT17                        00000001
WDTPSCNT2                         00000002
WDTPSCNT3                         00000003
WDTPSCNT4                         00000004
WDTPSCNT5                         00000005
WDTPSCNT6                         00000006
WDTPSCNT7                         00000007
WDTPSCNT8                         00000000
WDTPSCNT9                         00000001
WDTPSH                            00000ED5
WDTPSL                            00000ED4
WDTSEN                            00000000
WDTSTATE                          00000002
WDTTMR                            00000ED6
WDTTMR0                           00000003
WDTTMR1                           00000004
WDTTMR2                           00000005
WDTTMR3                           00000006
WDTTMR4                           00000007
WDTWINDOW0                        00000000
WDTWINDOW1                        00000001
WDTWINDOW2                        00000002
WDTWV                             00000005
WINDOW0                           00000000
WINDOW1                           00000001
WINDOW2                           00000002
WPUA                              00000F10
WPUA0                             00000000
WPUA1                             00000001
WPUA2                             00000002
WPUA3                             00000003
WPUA4                             00000004
WPUA5                             00000005
WPUA6                             00000006
WPUA7                             00000007
WPUB                              00000F18
WPUB0                             00000000
WPUB1                             00000001
WPUB2                             00000002
WPUB3                             00000003
WPUB4                             00000004
WPUB5                             00000005
WPUB6                             00000006
WPUB7                             00000007
WPUC                              00000F20
WPUC0                             00000000
WPUC1                             00000001
WPUC2                             00000002
WPUC3                             00000003
WPUC4                             00000004
WPUC5                             00000005
MPASM 5.86              VUMETRE-LUMINEUX.ASM   1-13-2020  14:51:01         PAGE 89


SYMBOL TABLE
  LABEL                             VALUE 

WPUC6                             00000006
WPUC7                             00000007
WPUE                              00000F2D
WPUE3                             00000003
WR                                00000001
WREG                              00000FE8
WREN                              00000002
WRERR                             00000003
WUE                               00000001
X1                                00000001
X10                               00000002
X11                               00000003
X12                               00000004
X13                               00000005
X14                               00000006
X15                               00000007
X2                                00000002
X3                                00000003
X4                                00000004
X5                                00000005
X6                                00000006
X7                                00000007
X8                                00000000
X9                                00000001
YOUTUBE                           00000A12
Z                                 00000002
ZCDCON                            00000F32
ZCDIE                             00000006
ZCDIF                             00000006
ZCDINTN                           00000000
ZCDINTP                           00000001
ZCDIP                             00000006
ZCDMD                             00000000
ZCDOUT                            00000005
ZCDPOL                            00000004
ZCDSEN                            00000007
ZERO                              00000004
ZERO_DE_PUISSANCE                 00000178
ZERO_OU_UN                        000007AE
_BOREN_NOSLP_2L                   000000BF
_BOREN_OFF_2L                     0000003F
_BOREN_ON_2L                      0000007F
_BOREN_SBORDIS_2L                 000000FF
_BORV_VBOR_245_2H                 000000FE
_BORV_VBOR_270_2H                 000000FD
_BORV_VBOR_285_2H                 000000FC
_BORV_VBOR_2P45_2H                000000FF
_CLKOUTEN_OFF_1H                  000000FF
_CLKOUTEN_ON_1H                   000000FE
_CONFIG1H                         00300001
_CONFIG1L                         00300000
_CONFIG2H                         00300003
_CONFIG2L                         00300002
MPASM 5.86              VUMETRE-LUMINEUX.ASM   1-13-2020  14:51:01         PAGE 90


SYMBOL TABLE
  LABEL                             VALUE 

_CONFIG3H                         00300005
_CONFIG3L                         00300004
_CONFIG4H                         00300007
_CONFIG4L                         00300006
_CONFIG5H                         00300009
_CONFIG5L                         00300008
_CONFIG6H                         0030000B
_CONFIG6L                         0030000A
_CPD_OFF_5L                       000000FF
_CPD_ON_5L                        000000FD
_CP_OFF_5L                        000000FF
_CP_ON_5L                         000000FE
_CSWEN_OFF_1H                     000000F7
_CSWEN_ON_1H                      000000FF
_DEBUG_OFF_2H                     000000FF
_DEBUG_ON_2H                      000000DF
_DEVID1                           003FFFFE
_DEVID2                           003FFFFF
_EBTR0_OFF_6L                     000000FF
_EBTR0_ON_6L                      000000FE
_EBTR1_OFF_6L                     000000FF
_EBTR1_ON_6L                      000000FD
_EBTR2_OFF_6L                     000000FF
_EBTR2_ON_6L                      000000FB
_EBTR3_OFF_6L                     000000FF
_EBTR3_ON_6L                      000000F7
_EBTRB_OFF_6H                     000000FF
_EBTRB_ON_6H                      000000FD
_FCMEN_OFF_1H                     000000DF
_FCMEN_ON_1H                      000000FF
_FEXTOSC_ECH_1L                   000000FF
_FEXTOSC_ECL_1L                   000000FD
_FEXTOSC_ECM_1L                   000000FE
_FEXTOSC_HS_1L                    000000FA
_FEXTOSC_LP_1L                    000000F8
_FEXTOSC_OFF_1L                   000000FC
_FEXTOSC_RESERVED_1L              000000FB
_FEXTOSC_XT_1L                    000000F9
_IDLOC0                           00200000
_IDLOC1                           00200001
_IDLOC10                          0020000A
_IDLOC11                          0020000B
_IDLOC12                          0020000C
_IDLOC13                          0020000D
_IDLOC14                          0020000E
_IDLOC15                          0020000F
_IDLOC2                           00200002
_IDLOC3                           00200003
_IDLOC4                           00200004
_IDLOC5                           00200005
_IDLOC6                           00200006
_IDLOC7                           00200007
_IDLOC8                           00200008
MPASM 5.86              VUMETRE-LUMINEUX.ASM   1-13-2020  14:51:01         PAGE 91


SYMBOL TABLE
  LABEL                             VALUE 

_IDLOC9                           00200009
_LPBOREN_OFF_2L                   000000FF
_LPBOREN_ON_2L                    000000DF
_LVP_OFF_4H                       000000DF
_LVP_ON_4H                        000000FF
_MCLRE_EXTMCLR_2L                 000000FF
_MCLRE_INTMCLR_2L                 000000FE
_PPS1WAY_OFF_2H                   000000F7
_PPS1WAY_ON_2H                    000000FF
_PWRTE_OFF_2L                     000000FF
_PWRTE_ON_2L                      000000FD
_RSTOSC_EXTOSC_1L                 000000FF
_RSTOSC_EXTOSC_4PLL_1L            000000AF
_RSTOSC_HFINTOSC_1MHZ_1L          000000EF
_RSTOSC_HFINTOSC_64MHZ_1L         0000008F
_RSTOSC_LFINTOSC_1L               000000DF
_RSTOSC_RESERVED_1_1L             0000009F
_RSTOSC_RESERVED_2_1L             000000BF
_RSTOSC_SOSC_1L                   000000CF
_SCANE_OFF_4H                     000000EF
_SCANE_ON_4H                      000000FF
_STVREN_OFF_2H                    000000EF
_STVREN_ON_2H                     000000FF
_WDTCCS_HFINTOSC_3H               000000CF
_WDTCCS_LFINTOSC_3H               000000C7
_WDTCCS_SC_3H                     000000FF
_WDTCPS_WDTCPS_0_3L               000000E0
_WDTCPS_WDTCPS_10_3L              000000EA
_WDTCPS_WDTCPS_11_3L              000000EB
_WDTCPS_WDTCPS_12_3L              000000EC
_WDTCPS_WDTCPS_13_3L              000000ED
_WDTCPS_WDTCPS_14_3L              000000EE
_WDTCPS_WDTCPS_15_3L              000000EF
_WDTCPS_WDTCPS_16_3L              000000F0
_WDTCPS_WDTCPS_17_3L              000000F1
_WDTCPS_WDTCPS_18_3L              000000F2
_WDTCPS_WDTCPS_19_3L              000000F3
_WDTCPS_WDTCPS_1_3L               000000E1
_WDTCPS_WDTCPS_20_3L              000000F4
_WDTCPS_WDTCPS_21_3L              000000F5
_WDTCPS_WDTCPS_22_3L              000000F6
_WDTCPS_WDTCPS_23_3L              000000F7
_WDTCPS_WDTCPS_24_3L              000000F8
_WDTCPS_WDTCPS_25_3L              000000F9
_WDTCPS_WDTCPS_26_3L              000000FA
_WDTCPS_WDTCPS_27_3L              000000FB
_WDTCPS_WDTCPS_28_3L              000000FC
_WDTCPS_WDTCPS_29_3L              000000FD
_WDTCPS_WDTCPS_2_3L               000000E2
_WDTCPS_WDTCPS_30_3L              000000FE
_WDTCPS_WDTCPS_31_3L              000000FF
_WDTCPS_WDTCPS_3_3L               000000E3
_WDTCPS_WDTCPS_4_3L               000000E4
MPASM 5.86              VUMETRE-LUMINEUX.ASM   1-13-2020  14:51:01         PAGE 92


SYMBOL TABLE
  LABEL                             VALUE 

_WDTCPS_WDTCPS_5_3L               000000E5
_WDTCPS_WDTCPS_6_3L               000000E6
_WDTCPS_WDTCPS_7_3L               000000E7
_WDTCPS_WDTCPS_8_3L               000000E8
_WDTCPS_WDTCPS_9_3L               000000E9
_WDTCWS_WDTCWS_0_3H               000000F8
_WDTCWS_WDTCWS_1_3H               000000F9
_WDTCWS_WDTCWS_2_3H               000000FA
_WDTCWS_WDTCWS_3_3H               000000FB
_WDTCWS_WDTCWS_4_3H               000000FC
_WDTCWS_WDTCWS_5_3H               000000FD
_WDTCWS_WDTCWS_6_3H               000000FE
_WDTCWS_WDTCWS_7_3H               000000FF
_WDTE_NSLEEP_3L                   000000DF
_WDTE_OFF_3L                      0000009F
_WDTE_ON_3L                       000000FF
_WDTE_SWDTEN_3L                   000000BF
_WRT0_OFF_4L                      000000FF
_WRT0_ON_4L                       000000FE
_WRT1_OFF_4L                      000000FF
_WRT1_ON_4L                       000000FD
_WRT2_OFF_4L                      000000FF
_WRT2_ON_4L                       000000FB
_WRT3_OFF_4L                      000000FF
_WRT3_ON_4L                       000000F7
_WRTB_OFF_4H                      000000FF
_WRTB_ON_4H                       000000FD
_WRTC_OFF_4H                      000000FF
_WRTC_ON_4H                       000000FE
_WRTD_OFF_4H                      000000FF
_WRTD_ON_4H                       000000FB
_XINST_OFF_2H                     000000FF
_XINST_ON_2H                      0000007F
_ZCD_OFF_2H                       000000FF
_ZCD_ON_2H                        000000FB
__18F25K40                        00000001
boucle0                           00000146
boucle1                           0000014C
boucleW0                          00000160
boucleW1                          00000166
clignote                          00000038
filbleu                           00000001
fin8                              000007BE
its1                              000007BC
lO                                00000796
labelA                            00000748
labelB                            000006E8
labelMB                           00000708
labelMH                           00000728
ll                                000007A2
parcours                          00000032
puissanceA                        00000009
puissanceB                        00000006
MPASM 5.86              VUMETRE-LUMINEUX.ASM   1-13-2020  14:51:01         PAGE 93


SYMBOL TABLE
  LABEL                             VALUE 

puissanceMB                       00000007
puissanceMH                       00000008
result8                           0000000C
suite                             00000048
suiteA                            00000520
suiteA1                           0000052C
suiteA2                           00000538
suiteA3                           00000544
suiteA4                           00000550
suiteA5                           0000055C
suiteA6                           00000568
suiteA7                           00000574
suiteA8                           00000580
suiteB                            000003D6
suiteB1                           000003E2
suiteB2                           000003EE
suiteB3                           000003FA
suiteB4                           00000406
suiteB5                           00000412
suiteB6                           0000041E
suiteB7                           0000042A
suiteB8                           00000436
suiteMB                           00000444
suiteMB1                          00000450
suiteMB2                          0000045C
suiteMB3                          00000468
suiteMB4                          00000474
suiteMB5                          00000480
suiteMB6                          0000048C
suiteMB7                          00000498
suiteMB8                          000004A4
suiteMH                           000004B2
suiteMH1                          000004BE
suiteMH2                          000004CA
suiteMH3                          000004D6
suiteMH4                          000004E2
suiteMH5                          000004EE
suiteMH6                          000004FA
suiteMH7                          00000506
suiteMH8                          00000512
temp                              00000000
un                                00000042
var0                              00000002
var1                              00000003
varW0                             00000004
varW1                             00000005

Errors   :     0
Warnings :    94 reported,     0 suppressed
Messages :     0 reported,     0 suppressed

