MPLINK 5.09, LINKER
Linker Map File - Created Mon Jan 13 14:51:03 2020

                                 Section Info
                  Section       Type    Address   Location Size(Bytes)
                ---------  ---------  ---------  ---------  ---------
                 RES_VECT       code   0x000000    program   0x00148c
                   .cinit    romdata   0x00148c    program   0x000002
                MAIN_PROG       code   0x00148e    program   0x000040
.config_300000_BUILD/DEFAULT/PRODUCTION/VUMETRE    romdata   0x300000    program   0x000001
.config_300001_BUILD/DEFAULT/PRODUCTION/VUMETRE    romdata   0x300001    program   0x000001
.config_300002_BUILD/DEFAULT/PRODUCTION/VUMETRE    romdata   0x300002    program   0x000001
.config_300003_BUILD/DEFAULT/PRODUCTION/VUMETRE    romdata   0x300003    program   0x000001
.config_300004_BUILD/DEFAULT/PRODUCTION/VUMETRE    romdata   0x300004    program   0x000001
.config_300005_BUILD/DEFAULT/PRODUCTION/VUMETRE    romdata   0x300005    program   0x000001
.config_300006_BUILD/DEFAULT/PRODUCTION/VUMETRE    romdata   0x300006    program   0x000001
.config_300007_BUILD/DEFAULT/PRODUCTION/VUMETRE    romdata   0x300007    program   0x000001
.config_300008_BUILD/DEFAULT/PRODUCTION/VUMETRE    romdata   0x300008    program   0x000001
.config_30000A_BUILD/DEFAULT/PRODUCTION/VUMETRE    romdata   0x30000a    program   0x000001
.config_30000B_BUILD/DEFAULT/PRODUCTION/VUMETRE    romdata   0x30000b    program   0x000001
                  INT_VAR      udata   0x000000       data   0x00000d



                              Program Memory Usage 
                               Start         End      
                           ---------   ---------      
                            0x000000    0x0014cd      
                            0x300000    0x300008      
                            0x30000a    0x30000b      
            5337 out of 33054 program addresses used, program memory utilization is 16%



                              Symbols - Sorted by Name
                     Name    Address   Location    Storage File                     
                ---------  ---------  ---------  --------- ---------                
                ADC_AIGUS   0x00073c    program     static E:\Thibaut Juzeau\Documents\études\Ingénieur\Informatique\Assembleur\projet\projet-elec.X\vumetre-lumineux.asm
               ADC_BASSES   0x0006dc    program     static E:\Thibaut Juzeau\Documents\études\Ingénieur\Informatique\Assembleur\projet\projet-elec.X\vumetre-lumineux.asm
           ADC_MEDIUM_BAS   0x0006fc    program     static E:\Thibaut Juzeau\Documents\études\Ingénieur\Informatique\Assembleur\projet\projet-elec.X\vumetre-lumineux.asm
          ADC_MEDIUM_HAUT   0x00071c    program     static E:\Thibaut Juzeau\Documents\études\Ingénieur\Informatique\Assembleur\projet\projet-elec.X\vumetre-lumineux.asm
                    AIGUS   0x000514    program     static E:\Thibaut Juzeau\Documents\études\Ingénieur\Informatique\Assembleur\projet\projet-elec.X\vumetre-lumineux.asm
                   BASSES   0x0003ca    program     static E:\Thibaut Juzeau\Documents\études\Ingénieur\Informatique\Assembleur\projet\projet-elec.X\vumetre-lumineux.asm
        CINQ_DE_PUISSANCE   0x0002c2    program     static E:\Thibaut Juzeau\Documents\études\Ingénieur\Informatique\Assembleur\projet\projet-elec.X\vumetre-lumineux.asm
                     CUBE   0x000dd0    program     static E:\Thibaut Juzeau\Documents\études\Ingénieur\Informatique\Assembleur\projet\projet-elec.X\vumetre-lumineux.asm
        DEUX_DE_PUISSANCE   0x0001fc    program     static E:\Thibaut Juzeau\Documents\études\Ingénieur\Informatique\Assembleur\projet\projet-elec.X\vumetre-lumineux.asm
                 FACEBOOK   0x000910    program     static E:\Thibaut Juzeau\Documents\études\Ingénieur\Informatique\Assembleur\projet\projet-elec.X\vumetre-lumineux.asm
              FROM1024TO8   0x00075c    program     static E:\Thibaut Juzeau\Documents\études\Ingénieur\Informatique\Assembleur\projet\projet-elec.X\vumetre-lumineux.asm
               GETSIGNALS   0x0007c0    program     static E:\Thibaut Juzeau\Documents\études\Ingénieur\Informatique\Assembleur\projet\projet-elec.X\vumetre-lumineux.asm
        HUIT_DE_PUISSANCE   0x000388    program     static E:\Thibaut Juzeau\Documents\études\Ingénieur\Informatique\Assembleur\projet\projet-elec.X\vumetre-lumineux.asm
              LED_BLANCHE   0x0000be    program     static E:\Thibaut Juzeau\Documents\études\Ingénieur\Informatique\Assembleur\projet\projet-elec.X\vumetre-lumineux.asm
                LED_BLEUE   0x0000a4    program     static E:\Thibaut Juzeau\Documents\études\Ingénieur\Informatique\Assembleur\projet\projet-elec.X\vumetre-lumineux.asm
                 LED_CYAN   0x000126    program     static E:\Thibaut Juzeau\Documents\études\Ingénieur\Informatique\Assembleur\projet\projet-elec.X\vumetre-lumineux.asm
                  LED_END   0x000140    program     static E:\Thibaut Juzeau\Documents\études\Ingénieur\Informatique\Assembleur\projet\projet-elec.X\vumetre-lumineux.asm
                LED_JAUNE   0x0000d8    program     static E:\Thibaut Juzeau\Documents\études\Ingénieur\Informatique\Assembleur\projet\projet-elec.X\vumetre-lumineux.asm
                LED_NOIRE   0x000070    program     static E:\Thibaut Juzeau\Documents\études\Ingénieur\Informatique\Assembleur\projet\projet-elec.X\vumetre-lumineux.asm
               LED_ORANGE   0x0000f2    program     static E:\Thibaut Juzeau\Documents\études\Ingénieur\Informatique\Assembleur\projet\projet-elec.X\vumetre-lumineux.asm
                LED_ROUGE   0x00008a    program     static E:\Thibaut Juzeau\Documents\études\Ingénieur\Informatique\Assembleur\projet\projet-elec.X\vumetre-lumineux.asm
                LED_VERTE   0x000056    program     static E:\Thibaut Juzeau\Documents\études\Ingénieur\Informatique\Assembleur\projet\projet-elec.X\vumetre-lumineux.asm
             LED_VIOLETTE   0x00010c    program     static E:\Thibaut Juzeau\Documents\études\Ingénieur\Informatique\Assembleur\projet\projet-elec.X\vumetre-lumineux.asm
                 LED_WAIT   0x00015a    program     static E:\Thibaut Juzeau\Documents\études\Ingénieur\Informatique\Assembleur\projet\projet-elec.X\vumetre-lumineux.asm
               MEDIUM_BAS   0x000438    program     static E:\Thibaut Juzeau\Documents\études\Ingénieur\Informatique\Assembleur\projet\projet-elec.X\vumetre-lumineux.asm
              MEDIUM_HAUT   0x0004a6    program     static E:\Thibaut Juzeau\Documents\études\Ingénieur\Informatique\Assembleur\projet\projet-elec.X\vumetre-lumineux.asm
                       OO   0x00077c    program     static E:\Thibaut Juzeau\Documents\études\Ingénieur\Informatique\Assembleur\projet\projet-elec.X\vumetre-lumineux.asm
                       Ol   0x00078a    program     static E:\Thibaut Juzeau\Documents\études\Ingénieur\Informatique\Assembleur\projet\projet-elec.X\vumetre-lumineux.asm
                 POCE_BLO   0x00080e    program     static E:\Thibaut Juzeau\Documents\études\Ingénieur\Informatique\Assembleur\projet\projet-elec.X\vumetre-lumineux.asm
      QUATRE_DE_PUISSANCE   0x000280    program     static E:\Thibaut Juzeau\Documents\études\Ingénieur\Informatique\Assembleur\projet\projet-elec.X\vumetre-lumineux.asm
          RESEAUX_SOCIAUX   0x000c16    program     static E:\Thibaut Juzeau\Documents\études\Ingénieur\Informatique\Assembleur\projet\projet-elec.X\vumetre-lumineux.asm
                Ruban_LED   0x00002c    program     static E:\Thibaut Juzeau\Documents\études\Ingénieur\Informatique\Assembleur\projet\projet-elec.X\vumetre-lumineux.asm
        SEPT_DE_PUISSANCE   0x000346    program     static E:\Thibaut Juzeau\Documents\études\Ingénieur\Informatique\Assembleur\projet\projet-elec.X\vumetre-lumineux.asm
         SIX_DE_PUISSANCE   0x000304    program     static E:\Thibaut Juzeau\Documents\études\Ingénieur\Informatique\Assembleur\projet\projet-elec.X\vumetre-lumineux.asm
                   SMILEY   0x001252    program     static E:\Thibaut Juzeau\Documents\études\Ingénieur\Informatique\Assembleur\projet\projet-elec.X\vumetre-lumineux.asm
                STARTPRGM   0x00148e    program     static E:\Thibaut Juzeau\Documents\études\Ingénieur\Informatique\Assembleur\projet\projet-elec.X\vumetre-lumineux.asm
              TEST_VOLUME   0x000582    program     static E:\Thibaut Juzeau\Documents\études\Ingénieur\Informatique\Assembleur\projet\projet-elec.X\vumetre-lumineux.asm
       TROIS_DE_PUISSANCE   0x00023e    program     static E:\Thibaut Juzeau\Documents\études\Ingénieur\Informatique\Assembleur\projet\projet-elec.X\vumetre-lumineux.asm
                  TWEETER   0x000b14    program     static E:\Thibaut Juzeau\Documents\études\Ingénieur\Informatique\Assembleur\projet\projet-elec.X\vumetre-lumineux.asm
                       UN   0x000010    program     static E:\Thibaut Juzeau\Documents\études\Ingénieur\Informatique\Assembleur\projet\projet-elec.X\vumetre-lumineux.asm
          UN_DE_PUISSANCE   0x0001ba    program     static E:\Thibaut Juzeau\Documents\études\Ingénieur\Informatique\Assembleur\projet\projet-elec.X\vumetre-lumineux.asm
                  YOUTUBE   0x000a12    program     static E:\Thibaut Juzeau\Documents\études\Ingénieur\Informatique\Assembleur\projet\projet-elec.X\vumetre-lumineux.asm
                     ZERO   0x000004    program     static E:\Thibaut Juzeau\Documents\études\Ingénieur\Informatique\Assembleur\projet\projet-elec.X\vumetre-lumineux.asm
        ZERO_DE_PUISSANCE   0x000178    program     static E:\Thibaut Juzeau\Documents\études\Ingénieur\Informatique\Assembleur\projet\projet-elec.X\vumetre-lumineux.asm
               ZERO_OU_UN   0x0007ae    program     static E:\Thibaut Juzeau\Documents\études\Ingénieur\Informatique\Assembleur\projet\projet-elec.X\vumetre-lumineux.asm
                  boucle0   0x000146    program     static E:\Thibaut Juzeau\Documents\études\Ingénieur\Informatique\Assembleur\projet\projet-elec.X\vumetre-lumineux.asm
                  boucle1   0x00014c    program     static E:\Thibaut Juzeau\Documents\études\Ingénieur\Informatique\Assembleur\projet\projet-elec.X\vumetre-lumineux.asm
                 boucleW0   0x000160    program     static E:\Thibaut Juzeau\Documents\études\Ingénieur\Informatique\Assembleur\projet\projet-elec.X\vumetre-lumineux.asm
                 boucleW1   0x000166    program     static E:\Thibaut Juzeau\Documents\études\Ingénieur\Informatique\Assembleur\projet\projet-elec.X\vumetre-lumineux.asm
                 clignote   0x0014c6    program     static E:\Thibaut Juzeau\Documents\études\Ingénieur\Informatique\Assembleur\projet\projet-elec.X\vumetre-lumineux.asm
                     fin8   0x0007be    program     static E:\Thibaut Juzeau\Documents\études\Ingénieur\Informatique\Assembleur\projet\projet-elec.X\vumetre-lumineux.asm
                     its1   0x0007bc    program     static E:\Thibaut Juzeau\Documents\études\Ingénieur\Informatique\Assembleur\projet\projet-elec.X\vumetre-lumineux.asm
                       lO   0x000796    program     static E:\Thibaut Juzeau\Documents\études\Ingénieur\Informatique\Assembleur\projet\projet-elec.X\vumetre-lumineux.asm
                   labelA   0x000748    program     static E:\Thibaut Juzeau\Documents\études\Ingénieur\Informatique\Assembleur\projet\projet-elec.X\vumetre-lumineux.asm
                   labelB   0x0006e8    program     static E:\Thibaut Juzeau\Documents\études\Ingénieur\Informatique\Assembleur\projet\projet-elec.X\vumetre-lumineux.asm
                  labelMB   0x000708    program     static E:\Thibaut Juzeau\Documents\études\Ingénieur\Informatique\Assembleur\projet\projet-elec.X\vumetre-lumineux.asm
                  labelMH   0x000728    program     static E:\Thibaut Juzeau\Documents\études\Ingénieur\Informatique\Assembleur\projet\projet-elec.X\vumetre-lumineux.asm
                       ll   0x0007a2    program     static E:\Thibaut Juzeau\Documents\études\Ingénieur\Informatique\Assembleur\projet\projet-elec.X\vumetre-lumineux.asm
                 parcours   0x000032    program     static E:\Thibaut Juzeau\Documents\études\Ingénieur\Informatique\Assembleur\projet\projet-elec.X\vumetre-lumineux.asm
                    suite   0x000048    program     static E:\Thibaut Juzeau\Documents\études\Ingénieur\Informatique\Assembleur\projet\projet-elec.X\vumetre-lumineux.asm
                   suiteA   0x000520    program     static E:\Thibaut Juzeau\Documents\études\Ingénieur\Informatique\Assembleur\projet\projet-elec.X\vumetre-lumineux.asm
                  suiteA1   0x00052c    program     static E:\Thibaut Juzeau\Documents\études\Ingénieur\Informatique\Assembleur\projet\projet-elec.X\vumetre-lumineux.asm
                  suiteA2   0x000538    program     static E:\Thibaut Juzeau\Documents\études\Ingénieur\Informatique\Assembleur\projet\projet-elec.X\vumetre-lumineux.asm
                  suiteA3   0x000544    program     static E:\Thibaut Juzeau\Documents\études\Ingénieur\Informatique\Assembleur\projet\projet-elec.X\vumetre-lumineux.asm
                  suiteA4   0x000550    program     static E:\Thibaut Juzeau\Documents\études\Ingénieur\Informatique\Assembleur\projet\projet-elec.X\vumetre-lumineux.asm
                  suiteA5   0x00055c    program     static E:\Thibaut Juzeau\Documents\études\Ingénieur\Informatique\Assembleur\projet\projet-elec.X\vumetre-lumineux.asm
                  suiteA6   0x000568    program     static E:\Thibaut Juzeau\Documents\études\Ingénieur\Informatique\Assembleur\projet\projet-elec.X\vumetre-lumineux.asm
                  suiteA7   0x000574    program     static E:\Thibaut Juzeau\Documents\études\Ingénieur\Informatique\Assembleur\projet\projet-elec.X\vumetre-lumineux.asm
                  suiteA8   0x000580    program     static E:\Thibaut Juzeau\Documents\études\Ingénieur\Informatique\Assembleur\projet\projet-elec.X\vumetre-lumineux.asm
                   suiteB   0x0003d6    program     static E:\Thibaut Juzeau\Documents\études\Ingénieur\Informatique\Assembleur\projet\projet-elec.X\vumetre-lumineux.asm
                  suiteB1   0x0003e2    program     static E:\Thibaut Juzeau\Documents\études\Ingénieur\Informatique\Assembleur\projet\projet-elec.X\vumetre-lumineux.asm
                  suiteB2   0x0003ee    program     static E:\Thibaut Juzeau\Documents\études\Ingénieur\Informatique\Assembleur\projet\projet-elec.X\vumetre-lumineux.asm
                  suiteB3   0x0003fa    program     static E:\Thibaut Juzeau\Documents\études\Ingénieur\Informatique\Assembleur\projet\projet-elec.X\vumetre-lumineux.asm
                  suiteB4   0x000406    program     static E:\Thibaut Juzeau\Documents\études\Ingénieur\Informatique\Assembleur\projet\projet-elec.X\vumetre-lumineux.asm
                  suiteB5   0x000412    program     static E:\Thibaut Juzeau\Documents\études\Ingénieur\Informatique\Assembleur\projet\projet-elec.X\vumetre-lumineux.asm
                  suiteB6   0x00041e    program     static E:\Thibaut Juzeau\Documents\études\Ingénieur\Informatique\Assembleur\projet\projet-elec.X\vumetre-lumineux.asm
                  suiteB7   0x00042a    program     static E:\Thibaut Juzeau\Documents\études\Ingénieur\Informatique\Assembleur\projet\projet-elec.X\vumetre-lumineux.asm
                  suiteB8   0x000436    program     static E:\Thibaut Juzeau\Documents\études\Ingénieur\Informatique\Assembleur\projet\projet-elec.X\vumetre-lumineux.asm
                  suiteMB   0x000444    program     static E:\Thibaut Juzeau\Documents\études\Ingénieur\Informatique\Assembleur\projet\projet-elec.X\vumetre-lumineux.asm
                 suiteMB1   0x000450    program     static E:\Thibaut Juzeau\Documents\études\Ingénieur\Informatique\Assembleur\projet\projet-elec.X\vumetre-lumineux.asm
                 suiteMB2   0x00045c    program     static E:\Thibaut Juzeau\Documents\études\Ingénieur\Informatique\Assembleur\projet\projet-elec.X\vumetre-lumineux.asm
                 suiteMB3   0x000468    program     static E:\Thibaut Juzeau\Documents\études\Ingénieur\Informatique\Assembleur\projet\projet-elec.X\vumetre-lumineux.asm
                 suiteMB4   0x000474    program     static E:\Thibaut Juzeau\Documents\études\Ingénieur\Informatique\Assembleur\projet\projet-elec.X\vumetre-lumineux.asm
                 suiteMB5   0x000480    program     static E:\Thibaut Juzeau\Documents\études\Ingénieur\Informatique\Assembleur\projet\projet-elec.X\vumetre-lumineux.asm
                 suiteMB6   0x00048c    program     static E:\Thibaut Juzeau\Documents\études\Ingénieur\Informatique\Assembleur\projet\projet-elec.X\vumetre-lumineux.asm
                 suiteMB7   0x000498    program     static E:\Thibaut Juzeau\Documents\études\Ingénieur\Informatique\Assembleur\projet\projet-elec.X\vumetre-lumineux.asm
                 suiteMB8   0x0004a4    program     static E:\Thibaut Juzeau\Documents\études\Ingénieur\Informatique\Assembleur\projet\projet-elec.X\vumetre-lumineux.asm
                  suiteMH   0x0004b2    program     static E:\Thibaut Juzeau\Documents\études\Ingénieur\Informatique\Assembleur\projet\projet-elec.X\vumetre-lumineux.asm
                 suiteMH1   0x0004be    program     static E:\Thibaut Juzeau\Documents\études\Ingénieur\Informatique\Assembleur\projet\projet-elec.X\vumetre-lumineux.asm
                 suiteMH2   0x0004ca    program     static E:\Thibaut Juzeau\Documents\études\Ingénieur\Informatique\Assembleur\projet\projet-elec.X\vumetre-lumineux.asm
                 suiteMH3   0x0004d6    program     static E:\Thibaut Juzeau\Documents\études\Ingénieur\Informatique\Assembleur\projet\projet-elec.X\vumetre-lumineux.asm
                 suiteMH4   0x0004e2    program     static E:\Thibaut Juzeau\Documents\études\Ingénieur\Informatique\Assembleur\projet\projet-elec.X\vumetre-lumineux.asm
                 suiteMH5   0x0004ee    program     static E:\Thibaut Juzeau\Documents\études\Ingénieur\Informatique\Assembleur\projet\projet-elec.X\vumetre-lumineux.asm
                 suiteMH6   0x0004fa    program     static E:\Thibaut Juzeau\Documents\études\Ingénieur\Informatique\Assembleur\projet\projet-elec.X\vumetre-lumineux.asm
                 suiteMH7   0x000506    program     static E:\Thibaut Juzeau\Documents\études\Ingénieur\Informatique\Assembleur\projet\projet-elec.X\vumetre-lumineux.asm
                 suiteMH8   0x000512    program     static E:\Thibaut Juzeau\Documents\études\Ingénieur\Informatique\Assembleur\projet\projet-elec.X\vumetre-lumineux.asm
                       un   0x000042    program     static E:\Thibaut Juzeau\Documents\études\Ingénieur\Informatique\Assembleur\projet\projet-elec.X\vumetre-lumineux.asm
               RESULTHIGH   0x00000a       data     static E:\Thibaut Juzeau\Documents\études\Ingénieur\Informatique\Assembleur\projet\projet-elec.X\vumetre-lumineux.asm
                RESULTLOW   0x00000b       data     static E:\Thibaut Juzeau\Documents\études\Ingénieur\Informatique\Assembleur\projet\projet-elec.X\vumetre-lumineux.asm
                  filbleu   0x000001       data     static E:\Thibaut Juzeau\Documents\études\Ingénieur\Informatique\Assembleur\projet\projet-elec.X\vumetre-lumineux.asm
               puissanceA   0x000009       data     static E:\Thibaut Juzeau\Documents\études\Ingénieur\Informatique\Assembleur\projet\projet-elec.X\vumetre-lumineux.asm
               puissanceB   0x000006       data     static E:\Thibaut Juzeau\Documents\études\Ingénieur\Informatique\Assembleur\projet\projet-elec.X\vumetre-lumineux.asm
              puissanceMB   0x000007       data     static E:\Thibaut Juzeau\Documents\études\Ingénieur\Informatique\Assembleur\projet\projet-elec.X\vumetre-lumineux.asm
              puissanceMH   0x000008       data     static E:\Thibaut Juzeau\Documents\études\Ingénieur\Informatique\Assembleur\projet\projet-elec.X\vumetre-lumineux.asm
                  result8   0x00000c       data     static E:\Thibaut Juzeau\Documents\études\Ingénieur\Informatique\Assembleur\projet\projet-elec.X\vumetre-lumineux.asm
                     temp   0x000000       data     static E:\Thibaut Juzeau\Documents\études\Ingénieur\Informatique\Assembleur\projet\projet-elec.X\vumetre-lumineux.asm
                     var0   0x000002       data     static E:\Thibaut Juzeau\Documents\études\Ingénieur\Informatique\Assembleur\projet\projet-elec.X\vumetre-lumineux.asm
                     var1   0x000003       data     static E:\Thibaut Juzeau\Documents\études\Ingénieur\Informatique\Assembleur\projet\projet-elec.X\vumetre-lumineux.asm
                    varW0   0x000004       data     static E:\Thibaut Juzeau\Documents\études\Ingénieur\Informatique\Assembleur\projet\projet-elec.X\vumetre-lumineux.asm
                    varW1   0x000005       data     static E:\Thibaut Juzeau\Documents\études\Ingénieur\Informatique\Assembleur\projet\projet-elec.X\vumetre-lumineux.asm



                              Symbols - Sorted by Address
                     Name    Address   Location    Storage File                     
                ---------  ---------  ---------  --------- ---------                
                     ZERO   0x000004    program     static E:\Thibaut Juzeau\Documents\études\Ingénieur\Informatique\Assembleur\projet\projet-elec.X\vumetre-lumineux.asm
                       UN   0x000010    program     static E:\Thibaut Juzeau\Documents\études\Ingénieur\Informatique\Assembleur\projet\projet-elec.X\vumetre-lumineux.asm
                Ruban_LED   0x00002c    program     static E:\Thibaut Juzeau\Documents\études\Ingénieur\Informatique\Assembleur\projet\projet-elec.X\vumetre-lumineux.asm
                 parcours   0x000032    program     static E:\Thibaut Juzeau\Documents\études\Ingénieur\Informatique\Assembleur\projet\projet-elec.X\vumetre-lumineux.asm
                       un   0x000042    program     static E:\Thibaut Juzeau\Documents\études\Ingénieur\Informatique\Assembleur\projet\projet-elec.X\vumetre-lumineux.asm
                    suite   0x000048    program     static E:\Thibaut Juzeau\Documents\études\Ingénieur\Informatique\Assembleur\projet\projet-elec.X\vumetre-lumineux.asm
                LED_VERTE   0x000056    program     static E:\Thibaut Juzeau\Documents\études\Ingénieur\Informatique\Assembleur\projet\projet-elec.X\vumetre-lumineux.asm
                LED_NOIRE   0x000070    program     static E:\Thibaut Juzeau\Documents\études\Ingénieur\Informatique\Assembleur\projet\projet-elec.X\vumetre-lumineux.asm
                LED_ROUGE   0x00008a    program     static E:\Thibaut Juzeau\Documents\études\Ingénieur\Informatique\Assembleur\projet\projet-elec.X\vumetre-lumineux.asm
                LED_BLEUE   0x0000a4    program     static E:\Thibaut Juzeau\Documents\études\Ingénieur\Informatique\Assembleur\projet\projet-elec.X\vumetre-lumineux.asm
              LED_BLANCHE   0x0000be    program     static E:\Thibaut Juzeau\Documents\études\Ingénieur\Informatique\Assembleur\projet\projet-elec.X\vumetre-lumineux.asm
                LED_JAUNE   0x0000d8    program     static E:\Thibaut Juzeau\Documents\études\Ingénieur\Informatique\Assembleur\projet\projet-elec.X\vumetre-lumineux.asm
               LED_ORANGE   0x0000f2    program     static E:\Thibaut Juzeau\Documents\études\Ingénieur\Informatique\Assembleur\projet\projet-elec.X\vumetre-lumineux.asm
             LED_VIOLETTE   0x00010c    program     static E:\Thibaut Juzeau\Documents\études\Ingénieur\Informatique\Assembleur\projet\projet-elec.X\vumetre-lumineux.asm
                 LED_CYAN   0x000126    program     static E:\Thibaut Juzeau\Documents\études\Ingénieur\Informatique\Assembleur\projet\projet-elec.X\vumetre-lumineux.asm
                  LED_END   0x000140    program     static E:\Thibaut Juzeau\Documents\études\Ingénieur\Informatique\Assembleur\projet\projet-elec.X\vumetre-lumineux.asm
                  boucle0   0x000146    program     static E:\Thibaut Juzeau\Documents\études\Ingénieur\Informatique\Assembleur\projet\projet-elec.X\vumetre-lumineux.asm
                  boucle1   0x00014c    program     static E:\Thibaut Juzeau\Documents\études\Ingénieur\Informatique\Assembleur\projet\projet-elec.X\vumetre-lumineux.asm
                 LED_WAIT   0x00015a    program     static E:\Thibaut Juzeau\Documents\études\Ingénieur\Informatique\Assembleur\projet\projet-elec.X\vumetre-lumineux.asm
                 boucleW0   0x000160    program     static E:\Thibaut Juzeau\Documents\études\Ingénieur\Informatique\Assembleur\projet\projet-elec.X\vumetre-lumineux.asm
                 boucleW1   0x000166    program     static E:\Thibaut Juzeau\Documents\études\Ingénieur\Informatique\Assembleur\projet\projet-elec.X\vumetre-lumineux.asm
        ZERO_DE_PUISSANCE   0x000178    program     static E:\Thibaut Juzeau\Documents\études\Ingénieur\Informatique\Assembleur\projet\projet-elec.X\vumetre-lumineux.asm
          UN_DE_PUISSANCE   0x0001ba    program     static E:\Thibaut Juzeau\Documents\études\Ingénieur\Informatique\Assembleur\projet\projet-elec.X\vumetre-lumineux.asm
        DEUX_DE_PUISSANCE   0x0001fc    program     static E:\Thibaut Juzeau\Documents\études\Ingénieur\Informatique\Assembleur\projet\projet-elec.X\vumetre-lumineux.asm
       TROIS_DE_PUISSANCE   0x00023e    program     static E:\Thibaut Juzeau\Documents\études\Ingénieur\Informatique\Assembleur\projet\projet-elec.X\vumetre-lumineux.asm
      QUATRE_DE_PUISSANCE   0x000280    program     static E:\Thibaut Juzeau\Documents\études\Ingénieur\Informatique\Assembleur\projet\projet-elec.X\vumetre-lumineux.asm
        CINQ_DE_PUISSANCE   0x0002c2    program     static E:\Thibaut Juzeau\Documents\études\Ingénieur\Informatique\Assembleur\projet\projet-elec.X\vumetre-lumineux.asm
         SIX_DE_PUISSANCE   0x000304    program     static E:\Thibaut Juzeau\Documents\études\Ingénieur\Informatique\Assembleur\projet\projet-elec.X\vumetre-lumineux.asm
        SEPT_DE_PUISSANCE   0x000346    program     static E:\Thibaut Juzeau\Documents\études\Ingénieur\Informatique\Assembleur\projet\projet-elec.X\vumetre-lumineux.asm
        HUIT_DE_PUISSANCE   0x000388    program     static E:\Thibaut Juzeau\Documents\études\Ingénieur\Informatique\Assembleur\projet\projet-elec.X\vumetre-lumineux.asm
                   BASSES   0x0003ca    program     static E:\Thibaut Juzeau\Documents\études\Ingénieur\Informatique\Assembleur\projet\projet-elec.X\vumetre-lumineux.asm
                   suiteB   0x0003d6    program     static E:\Thibaut Juzeau\Documents\études\Ingénieur\Informatique\Assembleur\projet\projet-elec.X\vumetre-lumineux.asm
                  suiteB1   0x0003e2    program     static E:\Thibaut Juzeau\Documents\études\Ingénieur\Informatique\Assembleur\projet\projet-elec.X\vumetre-lumineux.asm
                  suiteB2   0x0003ee    program     static E:\Thibaut Juzeau\Documents\études\Ingénieur\Informatique\Assembleur\projet\projet-elec.X\vumetre-lumineux.asm
                  suiteB3   0x0003fa    program     static E:\Thibaut Juzeau\Documents\études\Ingénieur\Informatique\Assembleur\projet\projet-elec.X\vumetre-lumineux.asm
                  suiteB4   0x000406    program     static E:\Thibaut Juzeau\Documents\études\Ingénieur\Informatique\Assembleur\projet\projet-elec.X\vumetre-lumineux.asm
                  suiteB5   0x000412    program     static E:\Thibaut Juzeau\Documents\études\Ingénieur\Informatique\Assembleur\projet\projet-elec.X\vumetre-lumineux.asm
                  suiteB6   0x00041e    program     static E:\Thibaut Juzeau\Documents\études\Ingénieur\Informatique\Assembleur\projet\projet-elec.X\vumetre-lumineux.asm
                  suiteB7   0x00042a    program     static E:\Thibaut Juzeau\Documents\études\Ingénieur\Informatique\Assembleur\projet\projet-elec.X\vumetre-lumineux.asm
                  suiteB8   0x000436    program     static E:\Thibaut Juzeau\Documents\études\Ingénieur\Informatique\Assembleur\projet\projet-elec.X\vumetre-lumineux.asm
               MEDIUM_BAS   0x000438    program     static E:\Thibaut Juzeau\Documents\études\Ingénieur\Informatique\Assembleur\projet\projet-elec.X\vumetre-lumineux.asm
                  suiteMB   0x000444    program     static E:\Thibaut Juzeau\Documents\études\Ingénieur\Informatique\Assembleur\projet\projet-elec.X\vumetre-lumineux.asm
                 suiteMB1   0x000450    program     static E:\Thibaut Juzeau\Documents\études\Ingénieur\Informatique\Assembleur\projet\projet-elec.X\vumetre-lumineux.asm
                 suiteMB2   0x00045c    program     static E:\Thibaut Juzeau\Documents\études\Ingénieur\Informatique\Assembleur\projet\projet-elec.X\vumetre-lumineux.asm
                 suiteMB3   0x000468    program     static E:\Thibaut Juzeau\Documents\études\Ingénieur\Informatique\Assembleur\projet\projet-elec.X\vumetre-lumineux.asm
                 suiteMB4   0x000474    program     static E:\Thibaut Juzeau\Documents\études\Ingénieur\Informatique\Assembleur\projet\projet-elec.X\vumetre-lumineux.asm
                 suiteMB5   0x000480    program     static E:\Thibaut Juzeau\Documents\études\Ingénieur\Informatique\Assembleur\projet\projet-elec.X\vumetre-lumineux.asm
                 suiteMB6   0x00048c    program     static E:\Thibaut Juzeau\Documents\études\Ingénieur\Informatique\Assembleur\projet\projet-elec.X\vumetre-lumineux.asm
                 suiteMB7   0x000498    program     static E:\Thibaut Juzeau\Documents\études\Ingénieur\Informatique\Assembleur\projet\projet-elec.X\vumetre-lumineux.asm
                 suiteMB8   0x0004a4    program     static E:\Thibaut Juzeau\Documents\études\Ingénieur\Informatique\Assembleur\projet\projet-elec.X\vumetre-lumineux.asm
              MEDIUM_HAUT   0x0004a6    program     static E:\Thibaut Juzeau\Documents\études\Ingénieur\Informatique\Assembleur\projet\projet-elec.X\vumetre-lumineux.asm
                  suiteMH   0x0004b2    program     static E:\Thibaut Juzeau\Documents\études\Ingénieur\Informatique\Assembleur\projet\projet-elec.X\vumetre-lumineux.asm
                 suiteMH1   0x0004be    program     static E:\Thibaut Juzeau\Documents\études\Ingénieur\Informatique\Assembleur\projet\projet-elec.X\vumetre-lumineux.asm
                 suiteMH2   0x0004ca    program     static E:\Thibaut Juzeau\Documents\études\Ingénieur\Informatique\Assembleur\projet\projet-elec.X\vumetre-lumineux.asm
                 suiteMH3   0x0004d6    program     static E:\Thibaut Juzeau\Documents\études\Ingénieur\Informatique\Assembleur\projet\projet-elec.X\vumetre-lumineux.asm
                 suiteMH4   0x0004e2    program     static E:\Thibaut Juzeau\Documents\études\Ingénieur\Informatique\Assembleur\projet\projet-elec.X\vumetre-lumineux.asm
                 suiteMH5   0x0004ee    program     static E:\Thibaut Juzeau\Documents\études\Ingénieur\Informatique\Assembleur\projet\projet-elec.X\vumetre-lumineux.asm
                 suiteMH6   0x0004fa    program     static E:\Thibaut Juzeau\Documents\études\Ingénieur\Informatique\Assembleur\projet\projet-elec.X\vumetre-lumineux.asm
                 suiteMH7   0x000506    program     static E:\Thibaut Juzeau\Documents\études\Ingénieur\Informatique\Assembleur\projet\projet-elec.X\vumetre-lumineux.asm
                 suiteMH8   0x000512    program     static E:\Thibaut Juzeau\Documents\études\Ingénieur\Informatique\Assembleur\projet\projet-elec.X\vumetre-lumineux.asm
                    AIGUS   0x000514    program     static E:\Thibaut Juzeau\Documents\études\Ingénieur\Informatique\Assembleur\projet\projet-elec.X\vumetre-lumineux.asm
                   suiteA   0x000520    program     static E:\Thibaut Juzeau\Documents\études\Ingénieur\Informatique\Assembleur\projet\projet-elec.X\vumetre-lumineux.asm
                  suiteA1   0x00052c    program     static E:\Thibaut Juzeau\Documents\études\Ingénieur\Informatique\Assembleur\projet\projet-elec.X\vumetre-lumineux.asm
                  suiteA2   0x000538    program     static E:\Thibaut Juzeau\Documents\études\Ingénieur\Informatique\Assembleur\projet\projet-elec.X\vumetre-lumineux.asm
                  suiteA3   0x000544    program     static E:\Thibaut Juzeau\Documents\études\Ingénieur\Informatique\Assembleur\projet\projet-elec.X\vumetre-lumineux.asm
                  suiteA4   0x000550    program     static E:\Thibaut Juzeau\Documents\études\Ingénieur\Informatique\Assembleur\projet\projet-elec.X\vumetre-lumineux.asm
                  suiteA5   0x00055c    program     static E:\Thibaut Juzeau\Documents\études\Ingénieur\Informatique\Assembleur\projet\projet-elec.X\vumetre-lumineux.asm
                  suiteA6   0x000568    program     static E:\Thibaut Juzeau\Documents\études\Ingénieur\Informatique\Assembleur\projet\projet-elec.X\vumetre-lumineux.asm
                  suiteA7   0x000574    program     static E:\Thibaut Juzeau\Documents\études\Ingénieur\Informatique\Assembleur\projet\projet-elec.X\vumetre-lumineux.asm
                  suiteA8   0x000580    program     static E:\Thibaut Juzeau\Documents\études\Ingénieur\Informatique\Assembleur\projet\projet-elec.X\vumetre-lumineux.asm
              TEST_VOLUME   0x000582    program     static E:\Thibaut Juzeau\Documents\études\Ingénieur\Informatique\Assembleur\projet\projet-elec.X\vumetre-lumineux.asm
               ADC_BASSES   0x0006dc    program     static E:\Thibaut Juzeau\Documents\études\Ingénieur\Informatique\Assembleur\projet\projet-elec.X\vumetre-lumineux.asm
                   labelB   0x0006e8    program     static E:\Thibaut Juzeau\Documents\études\Ingénieur\Informatique\Assembleur\projet\projet-elec.X\vumetre-lumineux.asm
           ADC_MEDIUM_BAS   0x0006fc    program     static E:\Thibaut Juzeau\Documents\études\Ingénieur\Informatique\Assembleur\projet\projet-elec.X\vumetre-lumineux.asm
                  labelMB   0x000708    program     static E:\Thibaut Juzeau\Documents\études\Ingénieur\Informatique\Assembleur\projet\projet-elec.X\vumetre-lumineux.asm
          ADC_MEDIUM_HAUT   0x00071c    program     static E:\Thibaut Juzeau\Documents\études\Ingénieur\Informatique\Assembleur\projet\projet-elec.X\vumetre-lumineux.asm
                  labelMH   0x000728    program     static E:\Thibaut Juzeau\Documents\études\Ingénieur\Informatique\Assembleur\projet\projet-elec.X\vumetre-lumineux.asm
                ADC_AIGUS   0x00073c    program     static E:\Thibaut Juzeau\Documents\études\Ingénieur\Informatique\Assembleur\projet\projet-elec.X\vumetre-lumineux.asm
                   labelA   0x000748    program     static E:\Thibaut Juzeau\Documents\études\Ingénieur\Informatique\Assembleur\projet\projet-elec.X\vumetre-lumineux.asm
              FROM1024TO8   0x00075c    program     static E:\Thibaut Juzeau\Documents\études\Ingénieur\Informatique\Assembleur\projet\projet-elec.X\vumetre-lumineux.asm
                       OO   0x00077c    program     static E:\Thibaut Juzeau\Documents\études\Ingénieur\Informatique\Assembleur\projet\projet-elec.X\vumetre-lumineux.asm
                       Ol   0x00078a    program     static E:\Thibaut Juzeau\Documents\études\Ingénieur\Informatique\Assembleur\projet\projet-elec.X\vumetre-lumineux.asm
                       lO   0x000796    program     static E:\Thibaut Juzeau\Documents\études\Ingénieur\Informatique\Assembleur\projet\projet-elec.X\vumetre-lumineux.asm
                       ll   0x0007a2    program     static E:\Thibaut Juzeau\Documents\études\Ingénieur\Informatique\Assembleur\projet\projet-elec.X\vumetre-lumineux.asm
               ZERO_OU_UN   0x0007ae    program     static E:\Thibaut Juzeau\Documents\études\Ingénieur\Informatique\Assembleur\projet\projet-elec.X\vumetre-lumineux.asm
                     its1   0x0007bc    program     static E:\Thibaut Juzeau\Documents\études\Ingénieur\Informatique\Assembleur\projet\projet-elec.X\vumetre-lumineux.asm
                     fin8   0x0007be    program     static E:\Thibaut Juzeau\Documents\études\Ingénieur\Informatique\Assembleur\projet\projet-elec.X\vumetre-lumineux.asm
               GETSIGNALS   0x0007c0    program     static E:\Thibaut Juzeau\Documents\études\Ingénieur\Informatique\Assembleur\projet\projet-elec.X\vumetre-lumineux.asm
                 POCE_BLO   0x00080e    program     static E:\Thibaut Juzeau\Documents\études\Ingénieur\Informatique\Assembleur\projet\projet-elec.X\vumetre-lumineux.asm
                 FACEBOOK   0x000910    program     static E:\Thibaut Juzeau\Documents\études\Ingénieur\Informatique\Assembleur\projet\projet-elec.X\vumetre-lumineux.asm
                  YOUTUBE   0x000a12    program     static E:\Thibaut Juzeau\Documents\études\Ingénieur\Informatique\Assembleur\projet\projet-elec.X\vumetre-lumineux.asm
                  TWEETER   0x000b14    program     static E:\Thibaut Juzeau\Documents\études\Ingénieur\Informatique\Assembleur\projet\projet-elec.X\vumetre-lumineux.asm
          RESEAUX_SOCIAUX   0x000c16    program     static E:\Thibaut Juzeau\Documents\études\Ingénieur\Informatique\Assembleur\projet\projet-elec.X\vumetre-lumineux.asm
                     CUBE   0x000dd0    program     static E:\Thibaut Juzeau\Documents\études\Ingénieur\Informatique\Assembleur\projet\projet-elec.X\vumetre-lumineux.asm
                   SMILEY   0x001252    program     static E:\Thibaut Juzeau\Documents\études\Ingénieur\Informatique\Assembleur\projet\projet-elec.X\vumetre-lumineux.asm
                STARTPRGM   0x00148e    program     static E:\Thibaut Juzeau\Documents\études\Ingénieur\Informatique\Assembleur\projet\projet-elec.X\vumetre-lumineux.asm
                 clignote   0x0014c6    program     static E:\Thibaut Juzeau\Documents\études\Ingénieur\Informatique\Assembleur\projet\projet-elec.X\vumetre-lumineux.asm
                     temp   0x000000       data     static E:\Thibaut Juzeau\Documents\études\Ingénieur\Informatique\Assembleur\projet\projet-elec.X\vumetre-lumineux.asm
                  filbleu   0x000001       data     static E:\Thibaut Juzeau\Documents\études\Ingénieur\Informatique\Assembleur\projet\projet-elec.X\vumetre-lumineux.asm
                     var0   0x000002       data     static E:\Thibaut Juzeau\Documents\études\Ingénieur\Informatique\Assembleur\projet\projet-elec.X\vumetre-lumineux.asm
                     var1   0x000003       data     static E:\Thibaut Juzeau\Documents\études\Ingénieur\Informatique\Assembleur\projet\projet-elec.X\vumetre-lumineux.asm
                    varW0   0x000004       data     static E:\Thibaut Juzeau\Documents\études\Ingénieur\Informatique\Assembleur\projet\projet-elec.X\vumetre-lumineux.asm
                    varW1   0x000005       data     static E:\Thibaut Juzeau\Documents\études\Ingénieur\Informatique\Assembleur\projet\projet-elec.X\vumetre-lumineux.asm
               puissanceB   0x000006       data     static E:\Thibaut Juzeau\Documents\études\Ingénieur\Informatique\Assembleur\projet\projet-elec.X\vumetre-lumineux.asm
              puissanceMB   0x000007       data     static E:\Thibaut Juzeau\Documents\études\Ingénieur\Informatique\Assembleur\projet\projet-elec.X\vumetre-lumineux.asm
              puissanceMH   0x000008       data     static E:\Thibaut Juzeau\Documents\études\Ingénieur\Informatique\Assembleur\projet\projet-elec.X\vumetre-lumineux.asm
               puissanceA   0x000009       data     static E:\Thibaut Juzeau\Documents\études\Ingénieur\Informatique\Assembleur\projet\projet-elec.X\vumetre-lumineux.asm
               RESULTHIGH   0x00000a       data     static E:\Thibaut Juzeau\Documents\études\Ingénieur\Informatique\Assembleur\projet\projet-elec.X\vumetre-lumineux.asm
                RESULTLOW   0x00000b       data     static E:\Thibaut Juzeau\Documents\études\Ingénieur\Informatique\Assembleur\projet\projet-elec.X\vumetre-lumineux.asm
                  result8   0x00000c       data     static E:\Thibaut Juzeau\Documents\études\Ingénieur\Informatique\Assembleur\projet\projet-elec.X\vumetre-lumineux.asm


